
CUBO.elf:     file format elf32-avr

Sections:
Idx Name          Size      VMA       LMA       File off  Algn
  0 .data         000000be  00800100  00004af0  00004b84  2**0
                  CONTENTS, ALLOC, LOAD, DATA
  1 .text         00004af0  00000000  00000000  00000094  2**1
                  CONTENTS, ALLOC, LOAD, READONLY, CODE
  2 .bss          00000127  008001be  008001be  00004c42  2**0
                  ALLOC
  3 .comment      00000030  00000000  00000000  00004c42  2**0
                  CONTENTS, READONLY
  4 .note.gnu.avr.deviceinfo 00000040  00000000  00000000  00004c74  2**2
                  CONTENTS, READONLY
  5 .debug_aranges 000001b8  00000000  00000000  00004cb4  2**0
                  CONTENTS, READONLY, DEBUGGING
  6 .debug_info   00003e0e  00000000  00000000  00004e6c  2**0
                  CONTENTS, READONLY, DEBUGGING
  7 .debug_abbrev 000004db  00000000  00000000  00008c7a  2**0
                  CONTENTS, READONLY, DEBUGGING
  8 .debug_line   000015c9  00000000  00000000  00009155  2**0
                  CONTENTS, READONLY, DEBUGGING
  9 .debug_frame  000006f4  00000000  00000000  0000a720  2**2
                  CONTENTS, READONLY, DEBUGGING
 10 .debug_str    0000055a  00000000  00000000  0000ae14  2**0
                  CONTENTS, READONLY, DEBUGGING
 11 .debug_loc    00003b10  00000000  00000000  0000b36e  2**0
                  CONTENTS, READONLY, DEBUGGING
 12 .debug_ranges 00000270  00000000  00000000  0000ee7e  2**0
                  CONTENTS, READONLY, DEBUGGING

Disassembly of section .text:

00000000 <__vectors>:
       0:	0c 94 e7 07 	jmp	0xfce	; 0xfce <__ctors_end>
       4:	0c 94 04 08 	jmp	0x1008	; 0x1008 <__bad_interrupt>
       8:	0c 94 04 08 	jmp	0x1008	; 0x1008 <__bad_interrupt>
       c:	0c 94 04 08 	jmp	0x1008	; 0x1008 <__bad_interrupt>
      10:	0c 94 04 08 	jmp	0x1008	; 0x1008 <__bad_interrupt>
      14:	0c 94 04 08 	jmp	0x1008	; 0x1008 <__bad_interrupt>
      18:	0c 94 04 08 	jmp	0x1008	; 0x1008 <__bad_interrupt>
      1c:	0c 94 04 08 	jmp	0x1008	; 0x1008 <__bad_interrupt>
      20:	0c 94 04 08 	jmp	0x1008	; 0x1008 <__bad_interrupt>
      24:	0c 94 04 08 	jmp	0x1008	; 0x1008 <__bad_interrupt>
      28:	0c 94 04 08 	jmp	0x1008	; 0x1008 <__bad_interrupt>
      2c:	0c 94 04 08 	jmp	0x1008	; 0x1008 <__bad_interrupt>
      30:	0c 94 04 08 	jmp	0x1008	; 0x1008 <__bad_interrupt>
      34:	0c 94 04 08 	jmp	0x1008	; 0x1008 <__bad_interrupt>
      38:	0c 94 04 08 	jmp	0x1008	; 0x1008 <__bad_interrupt>
      3c:	0c 94 04 08 	jmp	0x1008	; 0x1008 <__bad_interrupt>
      40:	0c 94 04 08 	jmp	0x1008	; 0x1008 <__bad_interrupt>
      44:	0c 94 04 08 	jmp	0x1008	; 0x1008 <__bad_interrupt>
      48:	0c 94 25 08 	jmp	0x104a	; 0x104a <__vector_18>
      4c:	0c 94 04 08 	jmp	0x1008	; 0x1008 <__bad_interrupt>
      50:	0c 94 48 08 	jmp	0x1090	; 0x1090 <__vector_20>
      54:	0c 94 04 08 	jmp	0x1008	; 0x1008 <__bad_interrupt>
      58:	0c 94 04 08 	jmp	0x1008	; 0x1008 <__bad_interrupt>
      5c:	0c 94 04 08 	jmp	0x1008	; 0x1008 <__bad_interrupt>
      60:	0c 94 04 08 	jmp	0x1008	; 0x1008 <__bad_interrupt>
      64:	0c 94 04 08 	jmp	0x1008	; 0x1008 <__bad_interrupt>
      68:	b4 09       	sbc	r27, r4
      6a:	b9 09       	sbc	r27, r9
      6c:	bf 09       	sbc	r27, r15
      6e:	c4 09       	sbc	r28, r4
      70:	ca 09       	sbc	r28, r10
      72:	d0 09       	sbc	r29, r0
      74:	d6 09       	sbc	r29, r6
      76:	fe 09       	sbc	r31, r14
      78:	03 0a       	sbc	r0, r19
      7a:	09 0a       	sbc	r0, r25
      7c:	0e 0a       	sbc	r0, r30
      7e:	14 0a       	sbc	r1, r20
      80:	1a 0a       	sbc	r1, r26
      82:	20 0a       	sbc	r2, r16
      84:	49 0a       	sbc	r4, r25
      86:	4b 0a       	sbc	r4, r27
      88:	4d 0a       	sbc	r4, r29
      8a:	4f 0a       	sbc	r4, r31
      8c:	51 0a       	sbc	r5, r17
      8e:	53 0a       	sbc	r5, r19
      90:	55 0a       	sbc	r5, r21
      92:	8d 0a       	sbc	r8, r29
      94:	8f 0a       	sbc	r8, r31
      96:	91 0a       	sbc	r9, r17
      98:	93 0a       	sbc	r9, r19
      9a:	95 0a       	sbc	r9, r21
      9c:	97 0a       	sbc	r9, r23
      9e:	99 0a       	sbc	r9, r25
      a0:	47 17       	cp	r20, r23
      a2:	b9 17       	cp	r27, r25
      a4:	2b 18       	sub	r2, r11
      a6:	9f 18       	sub	r9, r15
      a8:	13 19       	sub	r17, r3
      aa:	8b 19       	sub	r24, r11
      ac:	03 1a       	sub	r0, r19
      ae:	7b 1a       	sub	r7, r27
      b0:	f3 1a       	sub	r15, r19
      b2:	67 1b       	sub	r22, r23
      b4:	db 1b       	sub	r29, r27
      b6:	53 1c       	adc	r5, r3

000000b8 <_PLL>:
      b8:	0e 0d 0c 16 15 14 1c 1d 1e 24 25 26 ff 00 00 00     .........$%&....
	...
      d8:	00 16 0d 14 1e 15 24 0e 1d 1c 26 25 0c 04 04 02     ......$...&%....
      e8:	02 04 06 05 02 02 04 07 04 ff 00 00 00 00 00 00     ................
      f8:	00 00 1e 0d 24 0e 15 0c 16 1d 1c 26 25 14 02 02     ....$......&%...
     108:	04 04 03 09 02 04 04 03 08 03 ff 00 00 00 00 00     ................
     118:	00 00 00 0e 1d 0c 16 25 14 1e 0d 1c 26 15 24 04     .......%....&.$.
     128:	09 04 09 00 04 09 04 09 0a 0a 04 09 04 09 00 04     ................
     138:	09 04 09 ff 0e 25 0c 16 1d 14 1e 15 1c 26 0d 24     .....%.......&.$
     148:	05 0b 04 04 0a 04 0a 05 0b 04 0a 04 0b 04 0b 05     ................
     158:	0a 0a ff 00 00 0e 25 0c 16 0d 14 1e 1d 1c 26 15     ......%.......&.
     168:	24 05 0a 05 0b 05 0b 05 0a 04 0a 04 04 ff 00 00     $...............
     178:	00 00 00 00 00 00 0e 15 0c 16 25 14 1e 1d 1c 26     ..........%....&
     188:	0d 24 04 04 0b 05 0b 04 0a 04 0a 04 0b 04 ff 00     .$..............
     198:	00 00 00 00 00 00 00 16 0d 24 0e 15 1c 26 1d 14     .........$...&..
     1a8:	1e 25 0c 05 07 09 06 04 07 08 06 05 07 08 06 04     .%..............
     1b8:	07 09 06 ff 00 00 00 00 0e 1d 14 1e 15 0c 16 0d     ................
     1c8:	1c 26 25 24 0b 05 0a 04 0b 04 04 07 0b 06 0a 04     .&%$............
     1d8:	06 05 07 04 04 ff 00 00 00 0e 0d 14 1e 25 0c 16     .............%..
     1e8:	1d 1c 26 15 24 04 0a 05 0b 05 06 04 04 0b 05 0b     ..&.$...........
     1f8:	04 0a 05 07 ff 00 00 00 00 00 0e 0d 14 1e 1d 0c     ................
     208:	16 15 1c 26 25 24 04 0a 05 07 04 0a 05 0b 05 06     ...&%$..........
     218:	04 04 0b 05 0b ff 00 00 00 00 00 26 0d 0c 16 15     ...........&....
     228:	14 1e 25 24 0e 1d 1c 09 0b 08 06 09 0b 08 0a 08     ..%$............
     238:	07 08 08 0a 08 0a ff 00 00 00 00 00 16 0d 24 0e     ..............$.
     248:	1d 14 1e 15 1c 26 25 0c 05 0a 0a 04 0a 0a 05 06     .....&%.........
     258:	04 0a 05 0b 05 07 04 04 0b ff 00 00 00 16 0d 24     ...............$
     268:	0e 15 14 1e 25 1c 26 1d 0c 08 0a 0a 09 0a 0a 08     ....%.&.........
     278:	07 09 0b 08 0a 08 06 08 08 0a ff 00 00 00 1e 15     ................
     288:	0c 16 0d 24 0e 1d 1c 26 25 14 05 0a 05 0b 03 00     ...$...&%.......
     298:	03 01 02 02 05 03 04 02 04 ff 00 00 00 00 00 1e     ................
     2a8:	25 0c 16 15 24 0e 1d 1c 26 0d 14 06 04 0b 05 0b     %...$...&.......
     2b8:	04 0a 05 07 04 0a 05 0b 05 06 04 07 ff 00 00 00     ................
     2c8:	1e 0d 0c 16 25 24 0e 1d 1c 26 15 14 05 0a 04 0b     ....%$...&......
     2d8:	05 07 0b 06 04 0a 05 06 05 07 04 0b 04 ff 00 00     ................
     2e8:	00 0e 0d 1c 26 25 14 1e 1d 0c 16 15 24 04 0b 05     ....&%......$...
     2f8:	0a 04 02 0a 03 05 0b 04 03 04 02 05 0a 05 ff 00     ................
     308:	00 00 26 1d 0c 16 15 24 0e 25 14 1e 0d 1c 03 03     ..&....$.%......
     318:	00 09 0a 09 0b 08 01 02 02 05 0a 04 ff 00 00 00     ................
     328:	00 00 00 1e 25 0c 16 15 1c 26 0d 24 0e 1d 14 05     ....%....&.$....
     338:	0b 04 02 02 00 09 0a 08 0b 08 01 02 02 ff 00 00     ................
     348:	00 00 00 00 0e 1d 14 1e 0d 1c 26 15 0c 16 25 24     ..........&...%$
     358:	03 03 01 04 0b 04 0a 05 00 02 02 08 0b 09 ff 00     ................
     368:	00 00 00 00 00 0e 15 1c 26 1d 0c 16 0d 14 1e 25     ........&......%
     378:	24 08 0a 09 02 02 01 04 0b 05 0a 05 00 02 02 ff     $...............
     388:	00 00 00 00 00 00                                   ......

0000038e <_OLL>:
     38e:	2e 2f 28 2d 29 2c 2b 2a ff 00 00 00 00 00 00 00     ./(-),+*........
	...
     3aa:	00 00 0e 2f 16 2d 29 26 2b 2a 05 0a 0a 04 0a 05     .../.-)&+*......
     3ba:	0a 04 ff 00 00 00 00 00 00 00 00 00 00 00 00 00     ................
     3ca:	24 2f 0c 2d 29 1c 2b 2a 09 0a 04 0b 08 0a 05 ff     $/.-).+*........
	...
     3e6:	00 00 0e 2f 16 2d 29 1c 2b 14 08 0b 05 0a 09 0a     .../.-).+.......
     3f6:	04 0a 05 0a 04 ff 00 00 00 00 00 00 00 00 00 00     ................
     406:	24 2f 16 2d 29 26 2b 14 04 0a 05 0a 04 0b 05 0a     $/.-)&+.........
     416:	04 0a 0a 05 ff 00 00 00 00 00 00 00 00 00 2e 2f     .............../
     426:	0c 2d 29 2c 2b 1e 05 07 08 06 04 07 09 06 ff 00     .-),+...........
	...
     442:	2e 2f 0c 2d 29 26 2b 2a 05 07 09 06 04 07 08 06     ./.-)&+*........
     452:	ff 00 00 00 00 00 00 00 00 00 00 00 00 00 2e 2f     .............../
     462:	28 2d 29 1c 2b 1e 04 04 00 05 0a 0a 04 01 05 0a     (-).+...........
     472:	0a 05 ff 00 00 00 00 00 00 00 00 00 24 0d 16 25     ............$..%
     482:	15 26 1d 14 04 0a 03 04 02 05 05 0b 05 06 04 07     .&..............
     492:	ff 00 00 00 00 00 00 00 00 00 24 0d 16 25 15 1c     ..........$..%..
     4a2:	1d 1e 05 06 04 07 0a 0a 05 06 04 06 06 0a 0a 06     ................
     4b2:	ff 00 00 00 00 00 00 00 0e 0d 16 25 15 26 1d 2a     ...........%.&.*
     4c2:	07 02 02 08 03 08 06 0b 0b 07 08 03 06 ff 00 00     ................
     4d2:	00 00 00 00 00 00 24 0d 28 25 15 1c 1d 14 05 0a     ......$.(%......
     4e2:	0a 05 06 04 07 0b 07 0b 06 0b 04 ff 00 00 00 00     ................
     4f2:	00 00 00 00 2e 0d 28 25 15 26 1d 14 05 0a 0a 06     ......(%.&......
     502:	04 0a 05 0b 06 06 0a 0a 06 04 ff 00 00 00 00 00     ................
     512:	00 00 0e 0d 0c 25 15 2c 1d 2a 06 04 0a 05 0a 07     .....%.,.*......
     522:	0a 0a 07 08 06 09 ff 00 00 00 00 00 00 00 00 00     ................
     532:	2e 0d 0c 25 15 26 1d 2a 04 0a 05 0a 05 06 04 07     ...%.&.*........
     542:	0a 0a 05 06 04 07 ff 00 00 00 00 00 00 00 2e 0d     ................
     552:	28 25 15 2c 1d 2a 05 08 06 06 04 09 0a 0a 05 08     (%.,.*..........
     562:	06 04 09 0a 0a 05 08 06 06 04 09 ff 2e 0d 28 2d     ..............(-
     572:	29 2c 1d 2a 09 04 0a 05 0b 08 05 06 04 07 ff 00     ),.*............
	...
     58a:	00 00 2e 0d 28 2d 15 2c 2b 2a 05 08 07 04 09 0b     ....(-.,+*......
     59a:	0b 05 08 07 04 09 ff 00 00 00 00 00 00 00 00 00     ................
     5aa:	24 2f 16 25 15 26 2b 14 04 0b 02 02 00 03 0a 0a     $/.%.&+.........
     5ba:	02 01 02 02 0a 05 ff 00 00 00 00 00 00 00 0e 2f     .............../
     5ca:	16 25 15 1c 2b 14 05 0b 07 0a 07 08 06 09 06 04     .%..+...........
     5da:	ff 00 00 00 00 00 00 00 00 00 00 00 0e 0d 16 2d     ...............-
     5ea:	29 1c 1d 14 06 0a 04 0b 05 0a 04 0b 05 07 ff 00     )...............
	...
     602:	00 00 24 0d 16 2d 29 26 1d 14 09 03 08 0b 05 0a     ..$..-)&........
     612:	04 0b 05 0a 04 09 02 08 ff 00 00 00 00 00 00 00     ................
     622:	24 0d 0c 2d 29 1c 1d 2a 05 06 04 0a 05 07 04 06     $..-)..*........
     632:	0b 07 ff 00 00 00 00 00 00 00 00 00 00 00 0e 0d     ................
     642:	16 2d 29 2c 1d 1e 08 07 09 0b 08 06 09 07 0a 06     .-),............
     652:	ff 00 00 00 00 00 00 00 00 00 00 00 24 0d 0c 2d     ............$..-
     662:	29 2c 1d 14 04 02 05 08 0a 09 0b 04 03 05 ff 00     ),..............
	...
     67a:	00 00 0e 0d 16 2d 29 26 1d 2a 09 03 08 05 0b 04     .....-)&.*......
     68a:	0a 09 02 08 ff 00 00 00 00 00 00 00 00 00 00 00     ................
     69a:	24 0d 28 2d 29 26 1d 2a 06 04 0a 05 0b 07 ff 00     $.(-)&.*........
	...
     6b6:	00 00 0e 0d 28 2d 29 1c 1d 2a 04 0a 05 0b 05 06     ....(-)..*......
     6c6:	04 07 ff 00 00 00 00 00 00 00 00 00 00 00 00 00     ................
     6d6:	2e 0d 0c 2d 29 26 1d 2a 05 06 04 0a 05 0b 07 0a     ...-)&.*........
     6e6:	04 ff 00 00 00 00 00 00 00 00 00 00 00 00 0e 0d     ................
     6f6:	28 2d 29 2c 1d 14 08 07 09 0b 08 0a 06 0b 09 ff     (-),............
	...
     712:	2e 2f 16 25 15 2c 2b 14 04 0a 04 03 05 02 0b 05     ./.%.,+.........
     722:	ff 00 00 00 00 00 00 00 00 00 00 00 00 00 24 0d     ..............$.
     732:	16 2d 29 2c 1d 2a 04 0a 05 0b 03 05 06 04 07 02     .-),.*..........
     742:	ff 00 00 00 00 00 00 00 00 00 00 00 24 2f 0c 2d     ............$/.-
     752:	15 26 1d 1e 06 04 0a 05 0b 04 0a 05 0b 07 ff 00     .&..............
	...
     76a:	00 00 0e 2f 16 25 29 1c 1d 14 07 09 0b 08 0a 09     .../.%).........
     77a:	0b 08 0a 06 ff 00 00 00 00 00 00 00 00 00 00 00     ................
     78a:	24 0d 0c 25 29 26 2b 1e 08 0b 07 0b 0b 07 0a 06     $..%)&+.........
     79a:	0b 06 0a 0a 06 0b 09 ff 00 00 00 00 00 00 24 2f     ..............$/
     7aa:	0c 25 29 26 1d 1e 05 06 05 07 04 04 0a 0a 03 04     .%)&............
     7ba:	02 05 ff 00 00 00 00 00 00 00 00 00 0e 2f 0c 25     ............./.%
     7ca:	29 1c 1d 1e 05 06 04 07 0a 0a 04 04 03 05 02 05     )...............
     7da:	ff 00 00 00 00 00 00 00 00 00 0e 2f 0c 2d 15 1c     .........../.-..
     7ea:	1d 1e 08 07 09 06 0a 0a 08 08 02 08 03 08 ff 00     ................
	...
     802:	0e 2f 16 2d 15 2c 1d 1e 08 06 05 06 04 06 06 09     ./.-.,..........
     812:	ff 00 00 00 00 00 00 00 00 00 00 00 00 00 2e 0d     ................
     822:	0c 2d 15 1c 2b 14 09 03 08 0b 05 0a 04 09 02 08     .-..+...........
     832:	ff 00 00 00 00 00 00 00 00 00 00 00 24 0d 0c 2d     ............$..-
     842:	15 1c 2b 2a 0a 0a 08 05 05 07 04 07 05 06 06 04     ..+*............
     852:	07 04 09 ff 00 00 00 00 00 00 0e 0d 16 25 29 2c     .............%),
     862:	2b 1e 0a 0a 05 08 08 06 09 06 08 06 06 09 06 04     +...............
     872:	09 ff 00 00 00 00 00 00 2e 0d 28 2d 15 26 2b 14     ..........(-.&+.
     882:	03 04 03 05 05 0a 04 0a 05 0b 04 02 02 ff 00 00     ................
     892:	00 00 00 00 00 00 24 2f 0c 2d 15 1c 1d 2a 05 0b     ......$/.-...*..
     8a2:	04 06 05 07 0a 06 04 07 ff 00 00 00 00 00 00 00     ................
     8b2:	00 00 00 00 0e 0d 28 2d 15 26 2b 1e 04 0a 05 03     ......(-.&+.....
     8c2:	04 02 0b 03 05 02 ff 00 00 00 00 00 00 00 00 00     ................
     8d2:	00 00 2e 0d 28 25 29 26 2b 14 02 09 02 08 08 0b     ....(%)&+.......
     8e2:	09 0b 08 0a 09 03 03 ff 00 00 00 00 00 00 00 00     ................
     8f2:	0e 2f 0c 2d 15 2c 1d 2a 0b 04 0b 0b 05 0b 04 0b     ./.-.,.*........
     902:	04 04 07 0b 06 0a 04 ff 00 00 00 00 00 00 0e 2f     .............../
     912:	0c 25 29 2c 1d 2a 0b 05 0a 0a 04 0a 05 0a 04 04     .%),.*..........
     922:	02 0a 03 0b 05 ff 00 00 00 00 00 00 0e 2f 28 25     ............./(%
     932:	29 2c 1d 14 05 0a 0a 04 04 03 05 02 05 0a 0a 04     ),..............
     942:	ff 00 00 00 00 00 00 00 00 00 2e 2f 16 2d 15 1d     .........../.-..
     952:	1d 2a 06 05 07 04 0a 04 0b 05 ff 00 00 00 00 00     .*..............
	...
     96a:	0e 0d 16 25 29 26 2b 2a 09 02 02 04 02 05 02 08     ...%)&+*........
     97a:	ff 00 00 00 00 00 00 00 00 00 00 00 00 00 24 2f     ..............$/
     98a:	28 25 29 1c 1d 14 08 06 06 05 07 04 07 09 ff 00     (%).............
	...
     9a6:	2e 2f 0c 2d 15 2c 1d 1e 08 0a 07 0b 09 0a 08 06     ./.-.,..........
     9b6:	09 ff 00 00 00 00 00 00 00 00 00 00 00 00 0e 2f     .............../
     9c6:	28 25 29 1c 1d 2a 05 0b 06 0a 04 0b 05 07 04 ff     (%)..*..........
	...
     9e2:	2e 2f 16 2d 15 2c 1d 14 06 0a 04 0b 05 07 ff 00     ./.-.,..........
	...
     9fe:	00 00 24 2f 28 25 29 26 1d 2a 07 0b 09 0a 08 06     ..$/(%)&.*......
     a0e:	ff 00 00 00 00 00 00 00 00 00 00 00 00 00 00 00     ................
     a1e:	24 0d 28 25 29 2c 2b 1e 08 0a 09 0a 08 0b 09 0b     $.(%),+.........
     a2e:	09 02 08 03 ff 00 00 00 00 00 00 00 00 00 2e 0d     ................
     a3e:	16 2d 15 1c 2b 2a 05 0b 04 0b 05 0a 04 0a 04 03     .-..+*..........
     a4e:	05 02 ff 00 00 00 00 00 00 00 00 00                 ............

00000a5a <_SLS>:
     a5a:	00 2d 02 25 01 05 0a 04 0a 02 0b 03 ff 00 2f 03     .-.%........../.
     a6a:	0d 02 07 0a 06 0a 04 0b 05 ff 00 29 04 15 03 09     ...........)....
     a7a:	0a 08 0a 06 0b 07 ff 00 2b 01 1d 04 03 0a 02 0a     ........+.......
     a8a:	08 0b 09 ff 00 2b 01 1d 02 02 0b 03 0b 05 0a 04     .....+..........
     a9a:	ff 00 2d 02 25 03 04 0b 05 0b 07 0a 06 ff 00 2f     ..-.%........../
     aaa:	03 0d 04 06 0b 07 0b 09 0a 08 ff 00 29 04 15 01     ............)...
     aba:	08 0b 09 0b 03 0a 02 ff 00 2b 02 1d 01 0a ff 00     .........+......
     aca:	00 00 00 00 00 00 2f 02 0d 01 0b ff 00 00 00 00     ....../.........
     ada:	00 00 00 2d 03 25 02 0a ff 00 00 00 00 00 00 00     ...-.%..........
     aea:	29 03 15 02 0b ff 00 00 00 00 00 00 00 2f 04 0d     )............/..
     afa:	03 0a ff 00 00 00 00 00 00 00 2b 04 1d 03 0b ff     ..........+.....
     b0a:	00 00 00 00 00 00 00 29 01 15 04 0a ff 00 00 00     .......)........
     b1a:	00 00 00 00 2d 01 25 04 0b ff 00 00 00 00 00 00     ....-.%.........
     b2a:	00 29 01 15 02 0a ff 00 00 00 00 00 00 00 2d 01     .)............-.
     b3a:	25 02 0b ff 00 00 00 00 00 00 00 2b 02 1d 03 0a     %..........+....
     b4a:	ff 00 00 00 00 00 00 00 2f 02 0d 03 0b ff 00 00     ......../.......
     b5a:	00 00 00 00 00 2d 03 25 04 0a ff 00 00 00 00 00     .....-.%........
     b6a:	00 00 29 03 15 04 0b ff 00 00 00 00 00 00 00 2f     ..)............/
     b7a:	04 0d 01 0a ff 00 00 00 00 00 00 00 2b 04 1d 01     ............+...
     b8a:	0b ff 00 00 00 00 00 00 00 2d 04 25 01 0a 0a ff     .........-.%....
     b9a:	00 00 00 00 00 00 2b 03 1d 04 0a 0a ff 00 00 00     ......+.........
     baa:	00 00 00 29 02 15 03 0a 0a ff 00 00 00 00 00 00     ...)............
     bba:	2f 01 0d 02 0a 0a ff 00 00 00 00 00 00 2f 01 0d     /............/..
     bca:	04 0a 0a ff 00 00 00 00 00 00 2d 04 25 03 0a 0a     ..........-.%...
     bda:	ff 00 00 00 00 00 00 2b 03 1d 02 0a 0a ff 00 00     .......+........
     bea:	00 00 00 00 29 02 15 01 0a 0a ff 00 00 00 00 00     ....)...........
     bfa:	01 0b 01 17 02 05 0a 04 0a 02 0b 03 ff 01 13 02     ................
     c0a:	1f 03 07 0a 06 0a 04 0b 05 ff 01 1b 03 27 04 09     .............'..
     c1a:	0a 08 0a 06 0b 07 ff 01 23 04 0f 01 03 0a 02 0a     ........#.......
     c2a:	08 0b 09 ff                                         ....

00000c2e <_FLC>:
     c2e:	16 00 0c 04 28 01 08 0b 09 ff 1e 00 14 01 2a 02     ....(.........*.
     c3e:	02 0b 03 ff 26 00 1c 02 2c 03 04 0b 05 ff 0e 00     ....&...,.......
     c4e:	24 03 2e 04 06 0b 07 ff 24 00 0e 02 2e 01 05 0a     $.......$.......
     c5e:	04 ff 0c 00 16 03 28 02 07 0a 06 ff 14 00 1e 04     ......(.........
     c6e:	2a 03 09 0a 08 ff 1c 00 26 01 2c 04 03 0a 02 ff     *.......&.,.....
     c7e:	0e 00 24 04 2e 01 0a ff 00 00 1e 00 14 04 2a 01     ..$...........*.
     c8e:	0b ff 00 00 16 00 0c 01 28 02 0a ff 00 00 26 00     ........(.....&.
     c9e:	1c 01 2c 02 0b ff 00 00 1e 00 14 02 2a 03 0a ff     ..,.........*...
     cae:	00 00 0e 00 24 02 2e 03 0b ff 00 00 26 00 1c 03     ....$.......&...
     cbe:	2c 04 0a ff 00 00 16 00 0c 03 28 04 0b ff 00 00     ,.........(.....
     cce:	1c 00 26 02 2c 01 0a ff 00 00 0c 00 16 02 28 01     ..&.,.........(.
     cde:	0b ff 00 00 24 00 0e 03 2e 02 0a ff 00 00 14 00     ....$...........
     cee:	1e 03 2a 02 0b ff 00 00 0c 00 16 04 28 03 0a ff     ..*.........(...
     cfe:	00 00 1c 00 26 04 2c 03 0b ff 00 00 14 00 1e 01     ....&.,.........
     d0e:	2a 04 0a ff 00 00 24 00 0e 01 2e 04 0b ff 00 00     *.....$.........
     d1e:	0c 00 16 01 28 04 0a 0a ff 00 24 00 0e 04 2e 03     ....(.....$.....
     d2e:	0a 0a ff 00 1c 00 26 03 2c 02 0a 0a ff 00 14 00     ......&.,.......
     d3e:	1e 02 2a 01 0a 0a ff 00 1e 00 14 03 2a 04 0a 0a     ..*.........*...
     d4e:	ff 00 16 00 0c 02 28 03 0a 0a ff 00 0e 00 24 01     ......(.......$.
     d5e:	2e 02 0a 0a ff 00 26 00 1c 04 2c 01 0a 0a ff 00     ......&...,.....
     d6e:	00 01 08 01 22 04 03 0b 02 ff 08 01 00 06 22 06     ....".........".
     d7e:	03 0b 02 ff 22 01 00 06 22 06 08 0a 09 ff 06 01     ...."...".......
     d8e:	10 02 0a 01 05 0b 04 ff 10 01 06 06 0a 06 05 0b     ................
     d9e:	04 ff 0a 01 06 06 10 06 02 0a 03 ff 04 01 18 03     ................
     dae:	12 02 07 0b 06 ff 18 01 04 06 12 06 07 0b 06 ff     ................
     dbe:	12 01 04 06 18 06 04 0a 05 ff 02 01 20 04 1a 03     ............ ...
     dce:	09 0b 08 ff 20 01 02 06 1a 06 09 0b 08 ff 1a 01     .... ...........
     dde:	02 06 20 06 06 0a 07 ff 28 01 0c 06 16 06 05 0a     .. .....(.......
     dee:	04 ff 2a 01 14 06 1e 06 07 0a 06 ff 2c 01 1c 06     ..*.........,...
     dfe:	26 06 09 0a 08 ff 2e 01 24 06 0e 06 03 0a 02 ff     &.......$.......

00000e0e <_CRUZ>:
     e0e:	23 00 0f 01 02 ff 00 00 17 00 0b 01 03 ff 00 00     #...............
     e1e:	0b 00 17 02 04 ff 00 00 1f 00 13 02 05 ff 00 00     ................
     e2e:	13 00 1f 03 06 ff 00 00 27 00 1b 03 07 ff 00 00     ........'.......
     e3e:	1b 00 27 04 08 ff 00 00 0f 00 23 04 09 ff 00 00     ..'.......#.....
     e4e:	2f 00 0d 01 02 ff 00 00 29 00 15 02 04 ff 00 00     /.......).......
     e5e:	2b 00 1d 03 06 ff 00 00 2d 00 25 04 08 ff 00 00     +.......-.%.....
     e6e:	29 00 15 03 0a ff 00 00 29 00 15 04 0a 0a ff 00     ).......).......
     e7e:	29 00 15 01 0b ff 00 00 2b 00 1d 04 0a ff 00 00     ).......+.......
     e8e:	2b 00 1d 01 0a 0a ff 00 2b 00 1d 02 0b ff 00 00     +.......+.......
     e9e:	2d 00 25 01 0a ff 00 00 2d 00 25 02 0a 0a ff 00     -.%.....-.%.....
     eae:	2d 00 25 03 0b ff 00 00 2f 00 0d 02 0a ff 00 00     -.%...../.......
     ebe:	2f 00 0d 03 0a 0a ff 00 2f 00 0d 04 0b ff 00 00     /......./.......
     ece:	1d 00 2b 01 0a ff 00 00 15 00 29 01 0a 0a ff 00     ..+.......).....
     ede:	0d 00 2f 01 0b ff 00 00 25 00 2d 01 09 02 08 ff     ../.....%.-.....
     eee:	25 00 2d 02 0a ff 00 00 1d 00 2b 02 0a 0a ff 00     %.-.......+.....
     efe:	15 00 29 02 0b ff 00 00 0d 00 2f 02 03 04 02 ff     ..)......./.....
     f0e:	0d 00 2f 03 0a ff 00 00 25 00 2d 03 0a 0a ff 00     ../.....%.-.....
     f1e:	1d 00 2b 03 0b ff 00 00 15 00 29 03 05 06 04 ff     ..+.......).....
     f2e:	15 00 29 04 0a ff 00 00 0d 00 2f 04 0a 0a ff 00     ..)......./.....
     f3e:	25 00 2d 04 0b ff 00 00 1d 00 2b 04 07 08 06 ff     %.-.......+.....
     f4e:	23 01 0f 01 03 0a 02 ff 0b 01 17 02 05 0a 04 ff     #...............
     f5e:	13 01 1f 03 07 0a 06 ff 1b 01 27 04 09 0a 08 ff     ..........'.....
     f6e:	0f 01 23 04 03 0a 02 ff 17 01 0b 01 05 0a 04 ff     ..#.............
     f7e:	1f 01 13 02 07 0a 06 ff 27 01 1b 03 09 0a 08 ff     ........'.......
     f8e:	01 01 21 04 08 ff 00 00 03 01 19 03 06 ff 00 00     ..!.............
     f9e:	05 01 11 02 04 ff 00 00 07 01 09 01 02 ff 00 00     ................
     fae:	21 01 01 06 08 ff 00 00 19 01 03 06 06 ff 00 00     !...............
     fbe:	11 01 05 06 04 ff 00 00 09 01 07 06 02 ff 00 00     ................

00000fce <__ctors_end>:
     fce:	11 24       	eor	r1, r1
     fd0:	1f be       	out	0x3f, r1	; 63
     fd2:	cf ef       	ldi	r28, 0xFF	; 255
     fd4:	d8 e0       	ldi	r29, 0x08	; 8
     fd6:	de bf       	out	0x3e, r29	; 62
     fd8:	cd bf       	out	0x3d, r28	; 61

00000fda <__do_copy_data>:
     fda:	11 e0       	ldi	r17, 0x01	; 1
     fdc:	a0 e0       	ldi	r26, 0x00	; 0
     fde:	b1 e0       	ldi	r27, 0x01	; 1
     fe0:	e0 ef       	ldi	r30, 0xF0	; 240
     fe2:	fa e4       	ldi	r31, 0x4A	; 74
     fe4:	02 c0       	rjmp	.+4      	; 0xfea <__do_copy_data+0x10>
     fe6:	05 90       	lpm	r0, Z+
     fe8:	0d 92       	st	X+, r0
     fea:	ae 3b       	cpi	r26, 0xBE	; 190
     fec:	b1 07       	cpc	r27, r17
     fee:	d9 f7       	brne	.-10     	; 0xfe6 <__do_copy_data+0xc>

00000ff0 <__do_clear_bss>:
     ff0:	22 e0       	ldi	r18, 0x02	; 2
     ff2:	ae eb       	ldi	r26, 0xBE	; 190
     ff4:	b1 e0       	ldi	r27, 0x01	; 1
     ff6:	01 c0       	rjmp	.+2      	; 0xffa <.do_clear_bss_start>

00000ff8 <.do_clear_bss_loop>:
     ff8:	1d 92       	st	X+, r1

00000ffa <.do_clear_bss_start>:
     ffa:	a5 3e       	cpi	r26, 0xE5	; 229
     ffc:	b2 07       	cpc	r27, r18
     ffe:	e1 f7       	brne	.-8      	; 0xff8 <.do_clear_bss_loop>
    1000:	0e 94 ad 24 	call	0x495a	; 0x495a <main>
    1004:	0c 94 76 25 	jmp	0x4aec	; 0x4aec <_exit>

00001008 <__bad_interrupt>:
    1008:	0c 94 00 00 	jmp	0	; 0x0 <__vectors>

0000100c <initSerial>:
#define SIZE_OUTBUFF 200
#define SIZE_INBUFF 20
char INBUFF[SIZE_INBUFF], OUTBUFF[SIZE_OUTBUFF];
uint8_t iniINBUFF, fimINBUFF;
uint8_t iniOUTBUFF, fimOUTBUFF;
void initSerial(uint32_t baud){
    100c:	9b 01       	movw	r18, r22
    100e:	ac 01       	movw	r20, r24
	UBRR0 = 1000000/baud;
    1010:	60 e4       	ldi	r22, 0x40	; 64
    1012:	72 e4       	ldi	r23, 0x42	; 66
    1014:	8f e0       	ldi	r24, 0x0F	; 15
    1016:	90 e0       	ldi	r25, 0x00	; 0
    1018:	0e 94 08 25 	call	0x4a10	; 0x4a10 <__udivmodsi4>
    101c:	30 93 c5 00 	sts	0x00C5, r19
    1020:	20 93 c4 00 	sts	0x00C4, r18
	UCSR0A = (1<<U2X0);//Double transmission rate
    1024:	82 e0       	ldi	r24, 0x02	; 2
    1026:	80 93 c0 00 	sts	0x00C0, r24
	UCSR0B = (1<<RXEN0)|(1<<TXEN0)|(1<<RXCIE0)|(1<<TXCIE0);//habilita tx+rx + interrupcoes
    102a:	88 ed       	ldi	r24, 0xD8	; 216
    102c:	80 93 c1 00 	sts	0x00C1, r24
	UCSR0C = (1<<UCSZ01)|(1<<UCSZ00);//assync, 8 bit, np, 1 sb
    1030:	86 e0       	ldi	r24, 0x06	; 6
    1032:	80 93 c2 00 	sts	0x00C2, r24
	iniINBUFF = 0;
    1036:	10 92 13 02 	sts	0x0213, r1
	fimINBUFF = 0;
    103a:	10 92 15 02 	sts	0x0215, r1
	iniOUTBUFF = 0;
    103e:	10 92 be 01 	sts	0x01BE, r1
	fimOUTBUFF = 0;
    1042:	10 92 14 02 	sts	0x0214, r1
	sei();
    1046:	78 94       	sei
    1048:	08 95       	ret

0000104a <__vector_18>:
}
ISR(USART_RX_vect){
    104a:	1f 92       	push	r1
    104c:	0f 92       	push	r0
    104e:	0f b6       	in	r0, 0x3f	; 63
    1050:	0f 92       	push	r0
    1052:	11 24       	eor	r1, r1
    1054:	8f 93       	push	r24
    1056:	9f 93       	push	r25
    1058:	ef 93       	push	r30
    105a:	ff 93       	push	r31
	INBUFF[fimINBUFF] = UDR0;
    105c:	80 91 15 02 	lds	r24, 0x0215
    1060:	90 91 c6 00 	lds	r25, 0x00C6
    1064:	e8 2f       	mov	r30, r24
    1066:	f0 e0       	ldi	r31, 0x00	; 0
    1068:	ed 51       	subi	r30, 0x1D	; 29
    106a:	fe 4f       	sbci	r31, 0xFE	; 254
    106c:	90 83       	st	Z, r25
	fimINBUFF++;
    106e:	8f 5f       	subi	r24, 0xFF	; 255
	if(fimINBUFF>=SIZE_INBUFF)fimINBUFF = 0;
    1070:	84 31       	cpi	r24, 0x14	; 20
    1072:	18 f4       	brcc	.+6      	; 0x107a <__vector_18+0x30>
	fimOUTBUFF = 0;
	sei();
}
ISR(USART_RX_vect){
	INBUFF[fimINBUFF] = UDR0;
	fimINBUFF++;
    1074:	80 93 15 02 	sts	0x0215, r24
    1078:	02 c0       	rjmp	.+4      	; 0x107e <__vector_18+0x34>
	if(fimINBUFF>=SIZE_INBUFF)fimINBUFF = 0;
    107a:	10 92 15 02 	sts	0x0215, r1
}
    107e:	ff 91       	pop	r31
    1080:	ef 91       	pop	r30
    1082:	9f 91       	pop	r25
    1084:	8f 91       	pop	r24
    1086:	0f 90       	pop	r0
    1088:	0f be       	out	0x3f, r0	; 63
    108a:	0f 90       	pop	r0
    108c:	1f 90       	pop	r1
    108e:	18 95       	reti

00001090 <__vector_20>:
ISR(USART_TX_vect){
    1090:	1f 92       	push	r1
    1092:	0f 92       	push	r0
    1094:	0f b6       	in	r0, 0x3f	; 63
    1096:	0f 92       	push	r0
    1098:	11 24       	eor	r1, r1
    109a:	8f 93       	push	r24
    109c:	ef 93       	push	r30
    109e:	ff 93       	push	r31
	if(iniOUTBUFF!=fimOUTBUFF){
    10a0:	e0 91 be 01 	lds	r30, 0x01BE
    10a4:	80 91 14 02 	lds	r24, 0x0214
    10a8:	e8 17       	cp	r30, r24
    10aa:	81 f0       	breq	.+32     	; 0x10cc <__vector_20+0x3c>
		UDR0 = OUTBUFF[iniOUTBUFF];
    10ac:	f0 e0       	ldi	r31, 0x00	; 0
    10ae:	ea 5e       	subi	r30, 0xEA	; 234
    10b0:	fd 4f       	sbci	r31, 0xFD	; 253
    10b2:	80 81       	ld	r24, Z
    10b4:	80 93 c6 00 	sts	0x00C6, r24
		iniOUTBUFF++;
    10b8:	80 91 be 01 	lds	r24, 0x01BE
    10bc:	8f 5f       	subi	r24, 0xFF	; 255
		if(iniOUTBUFF>=SIZE_OUTBUFF)iniOUTBUFF = 0;
    10be:	88 3c       	cpi	r24, 0xC8	; 200
    10c0:	18 f4       	brcc	.+6      	; 0x10c8 <__vector_20+0x38>
	if(fimINBUFF>=SIZE_INBUFF)fimINBUFF = 0;
}
ISR(USART_TX_vect){
	if(iniOUTBUFF!=fimOUTBUFF){
		UDR0 = OUTBUFF[iniOUTBUFF];
		iniOUTBUFF++;
    10c2:	80 93 be 01 	sts	0x01BE, r24
    10c6:	02 c0       	rjmp	.+4      	; 0x10cc <__vector_20+0x3c>
		if(iniOUTBUFF>=SIZE_OUTBUFF)iniOUTBUFF = 0;
    10c8:	10 92 be 01 	sts	0x01BE, r1
	}
}
    10cc:	ff 91       	pop	r31
    10ce:	ef 91       	pop	r30
    10d0:	8f 91       	pop	r24
    10d2:	0f 90       	pop	r0
    10d4:	0f be       	out	0x3f, r0	; 63
    10d6:	0f 90       	pop	r0
    10d8:	1f 90       	pop	r1
    10da:	18 95       	reti

000010dc <putch>:
void putch(char a){
	cli();
    10dc:	f8 94       	cli
	if((UCSR0A & (1<<UDRE0))&&(iniOUTBUFF==fimOUTBUFF)){//mandar imediatamente
    10de:	20 91 c0 00 	lds	r18, 0x00C0
    10e2:	40 91 be 01 	lds	r20, 0x01BE
    10e6:	90 91 14 02 	lds	r25, 0x0214
    10ea:	25 ff       	sbrs	r18, 5
    10ec:	05 c0       	rjmp	.+10     	; 0x10f8 <putch+0x1c>
    10ee:	49 13       	cpse	r20, r25
    10f0:	03 c0       	rjmp	.+6      	; 0x10f8 <putch+0x1c>
		UDR0 = a;
    10f2:	80 93 c6 00 	sts	0x00C6, r24
    10f6:	19 c0       	rjmp	.+50     	; 0x112a <putch+0x4e>
	}else{//botar no buffer
		uint8_t b=fimOUTBUFF;
		if(b<iniOUTBUFF)b+=SIZE_OUTBUFF;
    10f8:	94 17       	cp	r25, r20
    10fa:	18 f4       	brcc	.+6      	; 0x1102 <putch+0x26>
    10fc:	28 ec       	ldi	r18, 0xC8	; 200
    10fe:	29 0f       	add	r18, r25
    1100:	01 c0       	rjmp	.+2      	; 0x1104 <putch+0x28>
    1102:	29 2f       	mov	r18, r25
		while(b-iniOUTBUFF>=SIZE_OUTBUFF-1);//Espera que o buff esteja com um slot vasio
    1104:	30 e0       	ldi	r19, 0x00	; 0
    1106:	24 1b       	sub	r18, r20
    1108:	31 09       	sbc	r19, r1
    110a:	27 3c       	cpi	r18, 0xC7	; 199
    110c:	31 05       	cpc	r19, r1
    110e:	ec f7       	brge	.-6      	; 0x110a <putch+0x2e>
		OUTBUFF[fimOUTBUFF] = a;
    1110:	e9 2f       	mov	r30, r25
    1112:	f0 e0       	ldi	r31, 0x00	; 0
    1114:	ea 5e       	subi	r30, 0xEA	; 234
    1116:	fd 4f       	sbci	r31, 0xFD	; 253
    1118:	80 83       	st	Z, r24
		fimOUTBUFF++;
    111a:	9f 5f       	subi	r25, 0xFF	; 255
		if(fimOUTBUFF>=SIZE_OUTBUFF)fimOUTBUFF=0;
    111c:	98 3c       	cpi	r25, 0xC8	; 200
    111e:	18 f4       	brcc	.+6      	; 0x1126 <putch+0x4a>
	}else{//botar no buffer
		uint8_t b=fimOUTBUFF;
		if(b<iniOUTBUFF)b+=SIZE_OUTBUFF;
		while(b-iniOUTBUFF>=SIZE_OUTBUFF-1);//Espera que o buff esteja com um slot vasio
		OUTBUFF[fimOUTBUFF] = a;
		fimOUTBUFF++;
    1120:	90 93 14 02 	sts	0x0214, r25
    1124:	02 c0       	rjmp	.+4      	; 0x112a <putch+0x4e>
		if(fimOUTBUFF>=SIZE_OUTBUFF)fimOUTBUFF=0;
    1126:	10 92 14 02 	sts	0x0214, r1
	}
	sei();
    112a:	78 94       	sei
    112c:	08 95       	ret

0000112e <putStr>:
uint8_t available(){
	uint8_t a = iniINBUFF;
	if(a>fimINBUFF)a+=SIZE_INBUFF;
	return fimINBUFF-a;
}
void putStr(char* s){
    112e:	cf 93       	push	r28
    1130:	df 93       	push	r29
    1132:	ec 01       	movw	r28, r24
	while(*s != 0){
    1134:	89 91       	ld	r24, Y+
    1136:	88 23       	and	r24, r24
    1138:	19 f0       	breq	.+6      	; 0x1140 <putStr+0x12>
		putch(*s);
    113a:	0e 94 6e 08 	call	0x10dc	; 0x10dc <putch>
    113e:	fa cf       	rjmp	.-12     	; 0x1134 <putStr+0x6>
		s++;
	}
}
    1140:	df 91       	pop	r29
    1142:	cf 91       	pop	r28
    1144:	08 95       	ret

00001146 <printInt>:
	for(b=9 ; a>0 ; b--,a/=10)buff[b] = (a%10)+'0';
	for(b=0;b<9 && buff[b]=='0';b++);
	for(;casas>10-b;casas--)putch('0');
	for(;b<10;b++)putch(buff[b]);
}
void printInt(int32_t a){
    1146:	4f 92       	push	r4
    1148:	5f 92       	push	r5
    114a:	6f 92       	push	r6
    114c:	7f 92       	push	r7
    114e:	af 92       	push	r10
    1150:	bf 92       	push	r11
    1152:	cf 92       	push	r12
    1154:	df 92       	push	r13
    1156:	ef 92       	push	r14
    1158:	ff 92       	push	r15
    115a:	0f 93       	push	r16
    115c:	1f 93       	push	r17
    115e:	cf 93       	push	r28
    1160:	df 93       	push	r29
    1162:	cd b7       	in	r28, 0x3d	; 61
    1164:	de b7       	in	r29, 0x3e	; 62
    1166:	2a 97       	sbiw	r28, 0x0a	; 10
    1168:	0f b6       	in	r0, 0x3f	; 63
    116a:	f8 94       	cli
    116c:	de bf       	out	0x3e, r29	; 62
    116e:	0f be       	out	0x3f, r0	; 63
    1170:	cd bf       	out	0x3d, r28	; 61
    1172:	6b 01       	movw	r12, r22
    1174:	7c 01       	movw	r14, r24
	char buff[10] = {'0','0','0','0','0','0','0','0','0','0'};
    1176:	8a e0       	ldi	r24, 0x0A	; 10
    1178:	e0 e0       	ldi	r30, 0x00	; 0
    117a:	f1 e0       	ldi	r31, 0x01	; 1
    117c:	8e 01       	movw	r16, r28
    117e:	0f 5f       	subi	r16, 0xFF	; 255
    1180:	1f 4f       	sbci	r17, 0xFF	; 255
    1182:	d8 01       	movw	r26, r16
    1184:	01 90       	ld	r0, Z+
    1186:	0d 92       	st	X+, r0
    1188:	8a 95       	dec	r24
    118a:	e1 f7       	brne	.-8      	; 0x1184 <printInt+0x3e>
	int b;
	if(a<0){
    118c:	f7 fe       	sbrs	r15, 7
    118e:	0b c0       	rjmp	.+22     	; 0x11a6 <printInt+0x60>
		putch('-');
    1190:	8d e2       	ldi	r24, 0x2D	; 45
    1192:	0e 94 6e 08 	call	0x10dc	; 0x10dc <putch>
		a = -a;
    1196:	f0 94       	com	r15
    1198:	e0 94       	com	r14
    119a:	d0 94       	com	r13
    119c:	c0 94       	com	r12
    119e:	c1 1c       	adc	r12, r1
    11a0:	d1 1c       	adc	r13, r1
    11a2:	e1 1c       	adc	r14, r1
    11a4:	f1 1c       	adc	r15, r1
    11a6:	5e 01       	movw	r10, r28
    11a8:	8b e0       	ldi	r24, 0x0B	; 11
    11aa:	a8 0e       	add	r10, r24
    11ac:	b1 1c       	adc	r11, r1
	}
	for(b=9 ; a>0 ; b--,a/=10)buff[b] = (a%10)+'0';
    11ae:	8a e0       	ldi	r24, 0x0A	; 10
    11b0:	48 2e       	mov	r4, r24
    11b2:	51 2c       	mov	r5, r1
    11b4:	61 2c       	mov	r6, r1
    11b6:	71 2c       	mov	r7, r1
    11b8:	c1 14       	cp	r12, r1
    11ba:	d1 04       	cpc	r13, r1
    11bc:	e1 04       	cpc	r14, r1
    11be:	f1 04       	cpc	r15, r1
    11c0:	69 f0       	breq	.+26     	; 0x11dc <printInt+0x96>
    11c2:	c7 01       	movw	r24, r14
    11c4:	b6 01       	movw	r22, r12
    11c6:	a3 01       	movw	r20, r6
    11c8:	92 01       	movw	r18, r4
    11ca:	0e 94 2a 25 	call	0x4a54	; 0x4a54 <__divmodsi4>
    11ce:	60 5d       	subi	r22, 0xD0	; 208
    11d0:	f5 01       	movw	r30, r10
    11d2:	62 93       	st	-Z, r22
    11d4:	5f 01       	movw	r10, r30
    11d6:	69 01       	movw	r12, r18
    11d8:	7a 01       	movw	r14, r20
    11da:	ee cf       	rjmp	.-36     	; 0x11b8 <printInt+0x72>
    11dc:	f8 01       	movw	r30, r16
    11de:	80 e0       	ldi	r24, 0x00	; 0
    11e0:	90 e0       	ldi	r25, 0x00	; 0
	for(b=0;b<9 && buff[b]=='0';b++);
    11e2:	21 91       	ld	r18, Z+
    11e4:	20 33       	cpi	r18, 0x30	; 48
    11e6:	21 f4       	brne	.+8      	; 0x11f0 <printInt+0xaa>
    11e8:	01 96       	adiw	r24, 0x01	; 1
    11ea:	89 30       	cpi	r24, 0x09	; 9
    11ec:	91 05       	cpc	r25, r1
    11ee:	c9 f7       	brne	.-14     	; 0x11e2 <printInt+0x9c>
    11f0:	78 01       	movw	r14, r16
    11f2:	e8 0e       	add	r14, r24
    11f4:	f9 1e       	adc	r15, r25
	for(;b<10;b++)putch(buff[b]);
    11f6:	f7 01       	movw	r30, r14
    11f8:	81 91       	ld	r24, Z+
    11fa:	7f 01       	movw	r14, r30
    11fc:	0e 94 6e 08 	call	0x10dc	; 0x10dc <putch>
    1200:	c7 01       	movw	r24, r14
    1202:	80 1b       	sub	r24, r16
    1204:	91 0b       	sbc	r25, r17
    1206:	0a 97       	sbiw	r24, 0x0a	; 10
    1208:	b1 f7       	brne	.-20     	; 0x11f6 <printInt+0xb0>
}
    120a:	2a 96       	adiw	r28, 0x0a	; 10
    120c:	0f b6       	in	r0, 0x3f	; 63
    120e:	f8 94       	cli
    1210:	de bf       	out	0x3e, r29	; 62
    1212:	0f be       	out	0x3f, r0	; 63
    1214:	cd bf       	out	0x3d, r28	; 61
    1216:	df 91       	pop	r29
    1218:	cf 91       	pop	r28
    121a:	1f 91       	pop	r17
    121c:	0f 91       	pop	r16
    121e:	ff 90       	pop	r15
    1220:	ef 90       	pop	r14
    1222:	df 90       	pop	r13
    1224:	cf 90       	pop	r12
    1226:	bf 90       	pop	r11
    1228:	af 90       	pop	r10
    122a:	7f 90       	pop	r7
    122c:	6f 90       	pop	r6
    122e:	5f 90       	pop	r5
    1230:	4f 90       	pop	r4
    1232:	08 95       	ret

00001234 <sendFullSPI>:
#define MOTORES_H_
#include <util/delay.h>
//posicao repouso -> empurrando = 45
//posicao repouso -> caido = 250
//girando 90 graus = 120
void sendFullSPI(uint8_t v){
    1234:	98 e0       	ldi	r25, 0x08	; 8
	uint8_t a;
	for(a=0;a<8;a++,v=v<<1){
		if(v&(1<<7))PORTD |= (1<<3);
    1236:	87 ff       	sbrs	r24, 7
    1238:	02 c0       	rjmp	.+4      	; 0x123e <sendFullSPI+0xa>
    123a:	5b 9a       	sbi	0x0b, 3	; 11
    123c:	01 c0       	rjmp	.+2      	; 0x1240 <sendFullSPI+0xc>
		else        PORTD &=~(1<<3);
    123e:	5b 98       	cbi	0x0b, 3	; 11
	#else
		//round up by default
		__ticks_dc = (uint32_t)(ceil(fabs(__tmp)));
	#endif

	__builtin_avr_delay_cycles(__ticks_dc);
    1240:	2a e1       	ldi	r18, 0x1A	; 26
    1242:	2a 95       	dec	r18
    1244:	f1 f7       	brne	.-4      	; 0x1242 <sendFullSPI+0xe>
    1246:	00 c0       	rjmp	.+0      	; 0x1248 <sendFullSPI+0x14>
		_delay_us(10);
		PORTD |= (1<<4);
    1248:	5c 9a       	sbi	0x0b, 4	; 11
    124a:	2a e1       	ldi	r18, 0x1A	; 26
    124c:	2a 95       	dec	r18
    124e:	f1 f7       	brne	.-4      	; 0x124c <sendFullSPI+0x18>
    1250:	00 c0       	rjmp	.+0      	; 0x1252 <sendFullSPI+0x1e>
		_delay_us(10);
		PORTD &=~(1<<4);
    1252:	5c 98       	cbi	0x0b, 4	; 11
//posicao repouso -> empurrando = 45
//posicao repouso -> caido = 250
//girando 90 graus = 120
void sendFullSPI(uint8_t v){
	uint8_t a;
	for(a=0;a<8;a++,v=v<<1){
    1254:	88 0f       	add	r24, r24
    1256:	91 50       	subi	r25, 0x01	; 1
    1258:	71 f7       	brne	.-36     	; 0x1236 <sendFullSPI+0x2>
    125a:	8a e1       	ldi	r24, 0x1A	; 26
    125c:	8a 95       	dec	r24
    125e:	f1 f7       	brne	.-4      	; 0x125c <sendFullSPI+0x28>
    1260:	00 c0       	rjmp	.+0      	; 0x1262 <sendFullSPI+0x2e>
		PORTD |= (1<<4);
		_delay_us(10);
		PORTD &=~(1<<4);
	}
	_delay_us(10);
	PORTD |= (1<<2);
    1262:	5a 9a       	sbi	0x0b, 2	; 11
    1264:	2a e1       	ldi	r18, 0x1A	; 26
    1266:	2a 95       	dec	r18
    1268:	f1 f7       	brne	.-4      	; 0x1266 <sendFullSPI+0x32>
    126a:	00 c0       	rjmp	.+0      	; 0x126c <sendFullSPI+0x38>
	_delay_us(10);
	PORTD &=~(1<<2);
    126c:	5a 98       	cbi	0x0b, 2	; 11
    126e:	08 95       	ret

00001270 <initMotors>:
}
uint8_t BUFFER_BYTE;
int16_t SUBPASSO_ROT, SUBPASSO_TRANS;
void initMotors(){
	DDRD |= 0b10011100;
    1270:	8a b1       	in	r24, 0x0a	; 10
    1272:	8c 69       	ori	r24, 0x9C	; 156
    1274:	8a b9       	out	0x0a, r24	; 10
	DDRB |= 0b00000111;
    1276:	84 b1       	in	r24, 0x04	; 4
    1278:	87 60       	ori	r24, 0x07	; 7
    127a:	84 b9       	out	0x04, r24	; 4
	PORTD &= ~(1<<7);
    127c:	5f 98       	cbi	0x0b, 7	; 11
	PORTB &= ~((1<<0)|(1<<1)|(1<<2));
    127e:	85 b1       	in	r24, 0x05	; 5
    1280:	88 7f       	andi	r24, 0xF8	; 248
    1282:	85 b9       	out	0x05, r24	; 5
	BUFFER_BYTE = 1;
    1284:	81 e0       	ldi	r24, 0x01	; 1
    1286:	80 93 e4 02 	sts	0x02E4, r24
	sendFullSPI(BUFFER_BYTE);
    128a:	0e 94 1a 09 	call	0x1234	; 0x1234 <sendFullSPI>
	SUBPASSO_ROT = 0;
    128e:	10 92 12 02 	sts	0x0212, r1
    1292:	10 92 11 02 	sts	0x0211, r1
	SUBPASSO_TRANS = 0;
    1296:	10 92 f8 01 	sts	0x01F8, r1
    129a:	10 92 f7 01 	sts	0x01F7, r1
	DDRB &= ~((1<<6)|(1<<7));//Sensores
    129e:	84 b1       	in	r24, 0x04	; 4
    12a0:	8f 73       	andi	r24, 0x3F	; 63
    12a2:	84 b9       	out	0x04, r24	; 4
	DDRD &= ~((1<<5)|(1<<6));
    12a4:	8a b1       	in	r24, 0x0a	; 10
    12a6:	8f 79       	andi	r24, 0x9F	; 159
    12a8:	8a b9       	out	0x0a, r24	; 10
    12aa:	08 95       	ret

000012ac <levantaBraco>:
	
}
void levantaBraco(){
	BUFFER_BYTE |= (1<<1);
	BUFFER_BYTE &=~(1<<0);
    12ac:	80 91 e4 02 	lds	r24, 0x02E4
    12b0:	8e 7f       	andi	r24, 0xFE	; 254
    12b2:	82 60       	ori	r24, 0x02	; 2
    12b4:	80 93 e4 02 	sts	0x02E4, r24
	sendFullSPI(BUFFER_BYTE);
    12b8:	0e 94 1a 09 	call	0x1234	; 0x1234 <sendFullSPI>
	while(PIND&(1<<6));
    12bc:	4e 99       	sbic	0x09, 6	; 9
    12be:	fe cf       	rjmp	.-4      	; 0x12bc <levantaBraco+0x10>
	#else
		//round up by default
		__ticks_dc = (uint32_t)(ceil(fabs(__tmp)));
	#endif

	__builtin_avr_delay_cycles(__ticks_dc);
    12c0:	2f e7       	ldi	r18, 0x7F	; 127
    12c2:	88 e3       	ldi	r24, 0x38	; 56
    12c4:	91 e0       	ldi	r25, 0x01	; 1
    12c6:	21 50       	subi	r18, 0x01	; 1
    12c8:	80 40       	sbci	r24, 0x00	; 0
    12ca:	90 40       	sbci	r25, 0x00	; 0
    12cc:	e1 f7       	brne	.-8      	; 0x12c6 <levantaBraco+0x1a>
    12ce:	00 c0       	rjmp	.+0      	; 0x12d0 <levantaBraco+0x24>
    12d0:	00 00       	nop
	_delay_ms(50);
	BUFFER_BYTE &=~(1<<1);
    12d2:	80 91 e4 02 	lds	r24, 0x02E4
    12d6:	8d 7f       	andi	r24, 0xFD	; 253
    12d8:	80 93 e4 02 	sts	0x02E4, r24
	sendFullSPI(BUFFER_BYTE);
    12dc:	0e 94 1a 09 	call	0x1234	; 0x1234 <sendFullSPI>
    12e0:	2f ef       	ldi	r18, 0xFF	; 255
    12e2:	82 e5       	ldi	r24, 0x52	; 82
    12e4:	97 e0       	ldi	r25, 0x07	; 7
    12e6:	21 50       	subi	r18, 0x01	; 1
    12e8:	80 40       	sbci	r24, 0x00	; 0
    12ea:	90 40       	sbci	r25, 0x00	; 0
    12ec:	e1 f7       	brne	.-8      	; 0x12e6 <levantaBraco+0x3a>
    12ee:	00 c0       	rjmp	.+0      	; 0x12f0 <levantaBraco+0x44>
    12f0:	00 00       	nop
    12f2:	08 95       	ret

000012f4 <soltaBraco>:
	_delay_ms(300);
}
void soltaBraco(){
	BUFFER_BYTE |= (1<<0);
	BUFFER_BYTE &=~(1<<1);
    12f4:	80 91 e4 02 	lds	r24, 0x02E4
    12f8:	8d 7f       	andi	r24, 0xFD	; 253
    12fa:	81 60       	ori	r24, 0x01	; 1
    12fc:	80 93 e4 02 	sts	0x02E4, r24
	sendFullSPI(BUFFER_BYTE);
    1300:	0e 94 1a 09 	call	0x1234	; 0x1234 <sendFullSPI>
    1304:	2f ef       	ldi	r18, 0xFF	; 255
    1306:	81 ee       	ldi	r24, 0xE1	; 225
    1308:	94 e0       	ldi	r25, 0x04	; 4
    130a:	21 50       	subi	r18, 0x01	; 1
    130c:	80 40       	sbci	r24, 0x00	; 0
    130e:	90 40       	sbci	r25, 0x00	; 0
    1310:	e1 f7       	brne	.-8      	; 0x130a <soltaBraco+0x16>
    1312:	00 c0       	rjmp	.+0      	; 0x1314 <soltaBraco+0x20>
    1314:	00 00       	nop
	_delay_ms(200);
	BUFFER_BYTE &=~(1<<0);
    1316:	80 91 e4 02 	lds	r24, 0x02E4
    131a:	8e 7f       	andi	r24, 0xFE	; 254
    131c:	80 93 e4 02 	sts	0x02E4, r24
	sendFullSPI(BUFFER_BYTE);
    1320:	0e 94 1a 09 	call	0x1234	; 0x1234 <sendFullSPI>
    1324:	2f ef       	ldi	r18, 0xFF	; 255
    1326:	81 ee       	ldi	r24, 0xE1	; 225
    1328:	94 e0       	ldi	r25, 0x04	; 4
    132a:	21 50       	subi	r18, 0x01	; 1
    132c:	80 40       	sbci	r24, 0x00	; 0
    132e:	90 40       	sbci	r25, 0x00	; 0
    1330:	e1 f7       	brne	.-8      	; 0x132a <soltaBraco+0x36>
    1332:	00 c0       	rjmp	.+0      	; 0x1334 <soltaBraco+0x40>
    1334:	00 00       	nop
    1336:	08 95       	ret

00001338 <soltaROT>:
	_delay_ms(200);
}
void soltaROT(){
	PORTD &= ~(1<<7);
    1338:	5f 98       	cbi	0x0b, 7	; 11
	PORTB &= ~((1<<0)|(1<<1)|(1<<2));
    133a:	85 b1       	in	r24, 0x05	; 5
    133c:	88 7f       	andi	r24, 0xF8	; 248
    133e:	85 b9       	out	0x05, r24	; 5
    1340:	08 95       	ret

00001342 <passoROTHOR>:
}
void passoROTHOR(){
	uint8_t a = SUBPASSO_ROT&0b00000111;
    1342:	80 91 11 02 	lds	r24, 0x0211
    1346:	e8 2f       	mov	r30, r24
    1348:	e7 70       	andi	r30, 0x07	; 7
	switch(a){
    134a:	8e 2f       	mov	r24, r30
    134c:	90 e0       	ldi	r25, 0x00	; 0
    134e:	fc 01       	movw	r30, r24
    1350:	31 97       	sbiw	r30, 0x01	; 1
    1352:	e7 30       	cpi	r30, 0x07	; 7
    1354:	f1 05       	cpc	r31, r1
    1356:	20 f4       	brcc	.+8      	; 0x1360 <passoROTHOR+0x1e>
    1358:	ec 5c       	subi	r30, 0xCC	; 204
    135a:	ff 4f       	sbci	r31, 0xFF	; 255
    135c:	0c 94 49 25 	jmp	0x4a92	; 0x4a92 <__tablejump2__>
		case 0:
		PORTD |= (1<<7);
    1360:	5f 9a       	sbi	0x0b, 7	; 11
		PORTB &= ~((1<<0)|(1<<1)|(1<<2));
    1362:	85 b1       	in	r24, 0x05	; 5
    1364:	88 7f       	andi	r24, 0xF8	; 248
    1366:	1a c0       	rjmp	.+52     	; 0x139c <passoROTHOR+0x5a>
		break;
		case 1:
		PORTB &= ~((1<<1)|(1<<2));
    1368:	85 b1       	in	r24, 0x05	; 5
    136a:	89 7f       	andi	r24, 0xF9	; 249
    136c:	85 b9       	out	0x05, r24	; 5
		PORTD |= (1<<7);
    136e:	5f 9a       	sbi	0x0b, 7	; 11
    1370:	04 c0       	rjmp	.+8      	; 0x137a <passoROTHOR+0x38>
		PORTB |= (1<<0);
		break;
		case 2:
		PORTD &= ~(1<<7);
    1372:	5f 98       	cbi	0x0b, 7	; 11
		PORTB &= ~((1<<1)|(1<<2));
    1374:	85 b1       	in	r24, 0x05	; 5
    1376:	89 7f       	andi	r24, 0xF9	; 249
    1378:	85 b9       	out	0x05, r24	; 5
		PORTB |= (1<<0);
    137a:	28 9a       	sbi	0x05, 0	; 5
		break;
    137c:	1c c0       	rjmp	.+56     	; 0x13b6 <passoROTHOR+0x74>
		case 3:
		PORTD &= ~(1<<7);
    137e:	5f 98       	cbi	0x0b, 7	; 11
		PORTB &= ~((1<<2));
    1380:	2a 98       	cbi	0x05, 2	; 5
		PORTB |= (1<<1)|(1<<0);
    1382:	85 b1       	in	r24, 0x05	; 5
    1384:	83 60       	ori	r24, 0x03	; 3
    1386:	0a c0       	rjmp	.+20     	; 0x139c <passoROTHOR+0x5a>
		break;
		case 4:
		PORTD &= ~(1<<7);
    1388:	5f 98       	cbi	0x0b, 7	; 11
		PORTB &= ~((1<<0)|(1<<2));
    138a:	85 b1       	in	r24, 0x05	; 5
    138c:	8a 7f       	andi	r24, 0xFA	; 250
    138e:	85 b9       	out	0x05, r24	; 5
		PORTB |= (1<<1);
    1390:	29 9a       	sbi	0x05, 1	; 5
		break;
    1392:	11 c0       	rjmp	.+34     	; 0x13b6 <passoROTHOR+0x74>
		case 5:
		PORTD &= ~(1<<7);
    1394:	5f 98       	cbi	0x0b, 7	; 11
		PORTB &= ~((1<<0));
    1396:	28 98       	cbi	0x05, 0	; 5
		PORTB |= (1<<1)|(1<<2);
    1398:	85 b1       	in	r24, 0x05	; 5
    139a:	86 60       	ori	r24, 0x06	; 6
    139c:	85 b9       	out	0x05, r24	; 5
		break;
    139e:	0b c0       	rjmp	.+22     	; 0x13b6 <passoROTHOR+0x74>
		case 6:
		PORTD &= ~(1<<7);
    13a0:	5f 98       	cbi	0x0b, 7	; 11
		PORTB &= ~((1<<0)|(1<<1));
    13a2:	85 b1       	in	r24, 0x05	; 5
    13a4:	8c 7f       	andi	r24, 0xFC	; 252
    13a6:	85 b9       	out	0x05, r24	; 5
		PORTB |= (1<<2);
    13a8:	2a 9a       	sbi	0x05, 2	; 5
		break;
    13aa:	05 c0       	rjmp	.+10     	; 0x13b6 <passoROTHOR+0x74>
		case 7:
		PORTB &= ~((1<<0)|(1<<1));
    13ac:	85 b1       	in	r24, 0x05	; 5
    13ae:	8c 7f       	andi	r24, 0xFC	; 252
    13b0:	85 b9       	out	0x05, r24	; 5
		PORTB |= (1<<2);
    13b2:	2a 9a       	sbi	0x05, 2	; 5
		PORTD |= (1<<7);
    13b4:	5f 9a       	sbi	0x0b, 7	; 11
		break;
	}
	SUBPASSO_ROT++;
    13b6:	80 91 11 02 	lds	r24, 0x0211
    13ba:	90 91 12 02 	lds	r25, 0x0212
    13be:	01 96       	adiw	r24, 0x01	; 1
    13c0:	90 93 12 02 	sts	0x0212, r25
    13c4:	80 93 11 02 	sts	0x0211, r24
    13c8:	8f e6       	ldi	r24, 0x6F	; 111
    13ca:	97 e1       	ldi	r25, 0x17	; 23
    13cc:	01 97       	sbiw	r24, 0x01	; 1
    13ce:	f1 f7       	brne	.-4      	; 0x13cc <passoROTHOR+0x8a>
    13d0:	00 c0       	rjmp	.+0      	; 0x13d2 <passoROTHOR+0x90>
    13d2:	00 00       	nop
    13d4:	08 95       	ret

000013d6 <passoROTANT>:
	_delay_ms(3);
}
void passoROTANT(){
	uint8_t a = SUBPASSO_ROT&0b00000111;
    13d6:	80 91 11 02 	lds	r24, 0x0211
    13da:	e8 2f       	mov	r30, r24
    13dc:	e7 70       	andi	r30, 0x07	; 7
	switch(a){
    13de:	8e 2f       	mov	r24, r30
    13e0:	90 e0       	ldi	r25, 0x00	; 0
    13e2:	fc 01       	movw	r30, r24
    13e4:	31 97       	sbiw	r30, 0x01	; 1
    13e6:	e7 30       	cpi	r30, 0x07	; 7
    13e8:	f1 05       	cpc	r31, r1
    13ea:	20 f4       	brcc	.+8      	; 0x13f4 <passoROTANT+0x1e>
    13ec:	e5 5c       	subi	r30, 0xC5	; 197
    13ee:	ff 4f       	sbci	r31, 0xFF	; 255
    13f0:	0c 94 49 25 	jmp	0x4a92	; 0x4a92 <__tablejump2__>
		case 0:
		PORTD |= (1<<7);
    13f4:	5f 9a       	sbi	0x0b, 7	; 11
		PORTB &= ~((1<<0)|(1<<1)|(1<<2));
    13f6:	85 b1       	in	r24, 0x05	; 5
    13f8:	88 7f       	andi	r24, 0xF8	; 248
    13fa:	1a c0       	rjmp	.+52     	; 0x1430 <passoROTANT+0x5a>
		break;
		case 1:
		PORTB &= ~((1<<1)|(1<<2));
    13fc:	85 b1       	in	r24, 0x05	; 5
    13fe:	89 7f       	andi	r24, 0xF9	; 249
    1400:	85 b9       	out	0x05, r24	; 5
		PORTD |= (1<<7);
    1402:	5f 9a       	sbi	0x0b, 7	; 11
    1404:	04 c0       	rjmp	.+8      	; 0x140e <passoROTANT+0x38>
		PORTB |= (1<<0);
		break;
		case 2:
		PORTD &= ~(1<<7);
    1406:	5f 98       	cbi	0x0b, 7	; 11
		PORTB &= ~((1<<1)|(1<<2));
    1408:	85 b1       	in	r24, 0x05	; 5
    140a:	89 7f       	andi	r24, 0xF9	; 249
    140c:	85 b9       	out	0x05, r24	; 5
		PORTB |= (1<<0);
    140e:	28 9a       	sbi	0x05, 0	; 5
		break;
    1410:	1c c0       	rjmp	.+56     	; 0x144a <passoROTANT+0x74>
		case 3:
		PORTD &= ~(1<<7);
    1412:	5f 98       	cbi	0x0b, 7	; 11
		PORTB &= ~((1<<2));
    1414:	2a 98       	cbi	0x05, 2	; 5
		PORTB |= (1<<1)|(1<<0);
    1416:	85 b1       	in	r24, 0x05	; 5
    1418:	83 60       	ori	r24, 0x03	; 3
    141a:	0a c0       	rjmp	.+20     	; 0x1430 <passoROTANT+0x5a>
		break;
		case 4:
		PORTD &= ~(1<<7);
    141c:	5f 98       	cbi	0x0b, 7	; 11
		PORTB &= ~((1<<0)|(1<<2));
    141e:	85 b1       	in	r24, 0x05	; 5
    1420:	8a 7f       	andi	r24, 0xFA	; 250
    1422:	85 b9       	out	0x05, r24	; 5
		PORTB |= (1<<1);
    1424:	29 9a       	sbi	0x05, 1	; 5
		break;
    1426:	11 c0       	rjmp	.+34     	; 0x144a <passoROTANT+0x74>
		case 5:
		PORTD &= ~(1<<7);
    1428:	5f 98       	cbi	0x0b, 7	; 11
		PORTB &= ~((1<<0));
    142a:	28 98       	cbi	0x05, 0	; 5
		PORTB |= (1<<1)|(1<<2);
    142c:	85 b1       	in	r24, 0x05	; 5
    142e:	86 60       	ori	r24, 0x06	; 6
    1430:	85 b9       	out	0x05, r24	; 5
		break;
    1432:	0b c0       	rjmp	.+22     	; 0x144a <passoROTANT+0x74>
		case 6:
		PORTD &= ~(1<<7);
    1434:	5f 98       	cbi	0x0b, 7	; 11
		PORTB &= ~((1<<0)|(1<<1));
    1436:	85 b1       	in	r24, 0x05	; 5
    1438:	8c 7f       	andi	r24, 0xFC	; 252
    143a:	85 b9       	out	0x05, r24	; 5
		PORTB |= (1<<2);
    143c:	2a 9a       	sbi	0x05, 2	; 5
		break;
    143e:	05 c0       	rjmp	.+10     	; 0x144a <passoROTANT+0x74>
		case 7:
		PORTB &= ~((1<<0)|(1<<1));
    1440:	85 b1       	in	r24, 0x05	; 5
    1442:	8c 7f       	andi	r24, 0xFC	; 252
    1444:	85 b9       	out	0x05, r24	; 5
		PORTB |= (1<<2);
    1446:	2a 9a       	sbi	0x05, 2	; 5
		PORTD |= (1<<7);
    1448:	5f 9a       	sbi	0x0b, 7	; 11
		break;
	}
	SUBPASSO_ROT--;
    144a:	80 91 11 02 	lds	r24, 0x0211
    144e:	90 91 12 02 	lds	r25, 0x0212
    1452:	01 97       	sbiw	r24, 0x01	; 1
    1454:	90 93 12 02 	sts	0x0212, r25
    1458:	80 93 11 02 	sts	0x0211, r24
    145c:	8f e6       	ldi	r24, 0x6F	; 111
    145e:	97 e1       	ldi	r25, 0x17	; 23
    1460:	01 97       	sbiw	r24, 0x01	; 1
    1462:	f1 f7       	brne	.-4      	; 0x1460 <passoROTANT+0x8a>
    1464:	00 c0       	rjmp	.+0      	; 0x1466 <passoROTANT+0x90>
    1466:	00 00       	nop
    1468:	08 95       	ret

0000146a <passoFRENTE>:
	_delay_ms(3);
}
void passoFRENTE(){
	uint8_t a = SUBPASSO_TRANS&0b00000111;
    146a:	40 91 f7 01 	lds	r20, 0x01F7
    146e:	e4 2f       	mov	r30, r20
    1470:	e7 70       	andi	r30, 0x07	; 7
	BUFFER_BYTE &= ~(0b11110000);
    1472:	80 91 e4 02 	lds	r24, 0x02E4
    1476:	8f 70       	andi	r24, 0x0F	; 15
	switch(a){
    1478:	4e 2f       	mov	r20, r30
    147a:	50 e0       	ldi	r21, 0x00	; 0
    147c:	fa 01       	movw	r30, r20
    147e:	31 97       	sbiw	r30, 0x01	; 1
    1480:	e7 30       	cpi	r30, 0x07	; 7
    1482:	f1 05       	cpc	r31, r1
    1484:	20 f4       	brcc	.+8      	; 0x148e <passoFRENTE+0x24>
    1486:	ee 5b       	subi	r30, 0xBE	; 190
    1488:	ff 4f       	sbci	r31, 0xFF	; 255
    148a:	0c 94 49 25 	jmp	0x4a92	; 0x4a92 <__tablejump2__>
		case 0:
		BUFFER_BYTE |=  (0b00010000);
    148e:	80 61       	ori	r24, 0x10	; 16
    1490:	0d c0       	rjmp	.+26     	; 0x14ac <passoFRENTE+0x42>
		break;
		case 1:
		BUFFER_BYTE |=  (0b01010000);
    1492:	80 65       	ori	r24, 0x50	; 80
    1494:	0b c0       	rjmp	.+22     	; 0x14ac <passoFRENTE+0x42>
		break;
		case 2:
		BUFFER_BYTE |=  (0b01000000);
    1496:	80 64       	ori	r24, 0x40	; 64
    1498:	09 c0       	rjmp	.+18     	; 0x14ac <passoFRENTE+0x42>
		break;
		case 3:
		BUFFER_BYTE |=  (0b01100000);
    149a:	80 66       	ori	r24, 0x60	; 96
    149c:	07 c0       	rjmp	.+14     	; 0x14ac <passoFRENTE+0x42>
		break;
		case 4:
		BUFFER_BYTE |=  (0b00100000);
    149e:	80 62       	ori	r24, 0x20	; 32
    14a0:	05 c0       	rjmp	.+10     	; 0x14ac <passoFRENTE+0x42>
		break;
		case 5:
		BUFFER_BYTE |=  (0b10100000);
    14a2:	80 6a       	ori	r24, 0xA0	; 160
    14a4:	03 c0       	rjmp	.+6      	; 0x14ac <passoFRENTE+0x42>
		break;
		case 6:
		BUFFER_BYTE |=  (0b10000000);
    14a6:	80 68       	ori	r24, 0x80	; 128
    14a8:	01 c0       	rjmp	.+2      	; 0x14ac <passoFRENTE+0x42>
		break;
		case 7:
		BUFFER_BYTE |=  (0b10010000);
    14aa:	80 69       	ori	r24, 0x90	; 144
    14ac:	80 93 e4 02 	sts	0x02E4, r24
		break;
	}
	sendFullSPI(BUFFER_BYTE);
    14b0:	80 91 e4 02 	lds	r24, 0x02E4
    14b4:	0e 94 1a 09 	call	0x1234	; 0x1234 <sendFullSPI>
	SUBPASSO_TRANS++;
	SUBPASSO_TRANS++;
    14b8:	80 91 f7 01 	lds	r24, 0x01F7
    14bc:	90 91 f8 01 	lds	r25, 0x01F8
    14c0:	02 96       	adiw	r24, 0x02	; 2
    14c2:	90 93 f8 01 	sts	0x01F8, r25
    14c6:	80 93 f7 01 	sts	0x01F7, r24
    14ca:	8f ec       	ldi	r24, 0xCF	; 207
    14cc:	97 e0       	ldi	r25, 0x07	; 7
    14ce:	01 97       	sbiw	r24, 0x01	; 1
    14d0:	f1 f7       	brne	.-4      	; 0x14ce <passoFRENTE+0x64>
    14d2:	00 c0       	rjmp	.+0      	; 0x14d4 <passoFRENTE+0x6a>
    14d4:	00 00       	nop
	_delay_ms(1);
	sendFullSPI(BUFFER_BYTE&0b00001111);
    14d6:	80 91 e4 02 	lds	r24, 0x02E4
    14da:	8f 70       	andi	r24, 0x0F	; 15
    14dc:	0e 94 1a 09 	call	0x1234	; 0x1234 <sendFullSPI>
    14e0:	8f e6       	ldi	r24, 0x6F	; 111
    14e2:	97 e1       	ldi	r25, 0x17	; 23
    14e4:	01 97       	sbiw	r24, 0x01	; 1
    14e6:	f1 f7       	brne	.-4      	; 0x14e4 <passoFRENTE+0x7a>
    14e8:	00 c0       	rjmp	.+0      	; 0x14ea <passoFRENTE+0x80>
    14ea:	00 00       	nop
    14ec:	08 95       	ret

000014ee <passoTRAS>:
	_delay_ms(3);
}
void passoTRAS(){
	if(PIND&(1<<5)){
    14ee:	4d 9b       	sbis	0x09, 5	; 9
    14f0:	42 c0       	rjmp	.+132    	; 0x1576 <passoTRAS+0x88>
		uint8_t a = SUBPASSO_TRANS&0b00000111;
    14f2:	40 91 f7 01 	lds	r20, 0x01F7
    14f6:	e4 2f       	mov	r30, r20
    14f8:	e7 70       	andi	r30, 0x07	; 7
		BUFFER_BYTE &= ~(0b11110000);
    14fa:	80 91 e4 02 	lds	r24, 0x02E4
    14fe:	8f 70       	andi	r24, 0x0F	; 15
		switch(a){
    1500:	4e 2f       	mov	r20, r30
    1502:	50 e0       	ldi	r21, 0x00	; 0
    1504:	fa 01       	movw	r30, r20
    1506:	31 97       	sbiw	r30, 0x01	; 1
    1508:	e7 30       	cpi	r30, 0x07	; 7
    150a:	f1 05       	cpc	r31, r1
    150c:	20 f4       	brcc	.+8      	; 0x1516 <passoTRAS+0x28>
    150e:	e7 5b       	subi	r30, 0xB7	; 183
    1510:	ff 4f       	sbci	r31, 0xFF	; 255
    1512:	0c 94 49 25 	jmp	0x4a92	; 0x4a92 <__tablejump2__>
			case 0:
			BUFFER_BYTE |=  (0b00010000);
    1516:	80 61       	ori	r24, 0x10	; 16
    1518:	0d c0       	rjmp	.+26     	; 0x1534 <passoTRAS+0x46>
			break;
			case 1:
			BUFFER_BYTE |=  (0b01010000);
    151a:	80 65       	ori	r24, 0x50	; 80
    151c:	0b c0       	rjmp	.+22     	; 0x1534 <passoTRAS+0x46>
			break;
			case 2:
			BUFFER_BYTE |=  (0b01000000);
    151e:	80 64       	ori	r24, 0x40	; 64
    1520:	09 c0       	rjmp	.+18     	; 0x1534 <passoTRAS+0x46>
			break;
			case 3:
			BUFFER_BYTE |=  (0b01100000);
    1522:	80 66       	ori	r24, 0x60	; 96
    1524:	07 c0       	rjmp	.+14     	; 0x1534 <passoTRAS+0x46>
			break;
			case 4:
			BUFFER_BYTE |=  (0b00100000);
    1526:	80 62       	ori	r24, 0x20	; 32
    1528:	05 c0       	rjmp	.+10     	; 0x1534 <passoTRAS+0x46>
			break;
			case 5:
			BUFFER_BYTE |=  (0b10100000);
    152a:	80 6a       	ori	r24, 0xA0	; 160
    152c:	03 c0       	rjmp	.+6      	; 0x1534 <passoTRAS+0x46>
			break;
			case 6:
			BUFFER_BYTE |=  (0b10000000);
    152e:	80 68       	ori	r24, 0x80	; 128
    1530:	01 c0       	rjmp	.+2      	; 0x1534 <passoTRAS+0x46>
			break;
			case 7:
			BUFFER_BYTE |=  (0b10010000);
    1532:	80 69       	ori	r24, 0x90	; 144
    1534:	80 93 e4 02 	sts	0x02E4, r24
			break;
		}
		sendFullSPI(BUFFER_BYTE);
    1538:	80 91 e4 02 	lds	r24, 0x02E4
    153c:	0e 94 1a 09 	call	0x1234	; 0x1234 <sendFullSPI>
		SUBPASSO_TRANS--;
		SUBPASSO_TRANS--;
    1540:	80 91 f7 01 	lds	r24, 0x01F7
    1544:	90 91 f8 01 	lds	r25, 0x01F8
    1548:	02 97       	sbiw	r24, 0x02	; 2
    154a:	90 93 f8 01 	sts	0x01F8, r25
    154e:	80 93 f7 01 	sts	0x01F7, r24
    1552:	8f e6       	ldi	r24, 0x6F	; 111
    1554:	97 e1       	ldi	r25, 0x17	; 23
    1556:	01 97       	sbiw	r24, 0x01	; 1
    1558:	f1 f7       	brne	.-4      	; 0x1556 <passoTRAS+0x68>
    155a:	00 c0       	rjmp	.+0      	; 0x155c <passoTRAS+0x6e>
    155c:	00 00       	nop
		_delay_ms(3);
		sendFullSPI(BUFFER_BYTE&0b00001111);
    155e:	80 91 e4 02 	lds	r24, 0x02E4
    1562:	8f 70       	andi	r24, 0x0F	; 15
    1564:	0e 94 1a 09 	call	0x1234	; 0x1234 <sendFullSPI>
    1568:	8f ec       	ldi	r24, 0xCF	; 207
    156a:	97 e0       	ldi	r25, 0x07	; 7
    156c:	01 97       	sbiw	r24, 0x01	; 1
    156e:	f1 f7       	brne	.-4      	; 0x156c <passoTRAS+0x7e>
    1570:	00 c0       	rjmp	.+0      	; 0x1572 <passoTRAS+0x84>
    1572:	00 00       	nop
    1574:	08 95       	ret
		_delay_ms(1);
	}else{
		SUBPASSO_TRANS = 0;
    1576:	10 92 f8 01 	sts	0x01F8, r1
    157a:	10 92 f7 01 	sts	0x01F7, r1
    157e:	08 95       	ret

00001580 <soltaTrans>:
	}		
}
void soltaTrans(){
	BUFFER_BYTE &= ~(0b11110000);
    1580:	80 91 e4 02 	lds	r24, 0x02E4
    1584:	8f 70       	andi	r24, 0x0F	; 15
    1586:	80 93 e4 02 	sts	0x02E4, r24
	sendFullSPI(BUFFER_BYTE);
    158a:	0c 94 1a 09 	jmp	0x1234	; 0x1234 <sendFullSPI>

0000158e <translateTo>:
	while(PIND&(1<<5)){
		passoROTANT();
	}
	SUBPASSO_ROT = 0;
}
void translateTo(int16_t pos){
    158e:	cf 93       	push	r28
    1590:	df 93       	push	r29
    1592:	ec 01       	movw	r28, r24
	if(pos<=0){
    1594:	18 16       	cp	r1, r24
    1596:	19 06       	cpc	r1, r25
    1598:	54 f0       	brlt	.+20     	; 0x15ae <translateTo+0x20>
		while(PIND&(1<<5)){
    159a:	4d 9b       	sbis	0x09, 5	; 9
    159c:	03 c0       	rjmp	.+6      	; 0x15a4 <translateTo+0x16>
			passoTRAS();
    159e:	0e 94 77 0a 	call	0x14ee	; 0x14ee <passoTRAS>
    15a2:	fb cf       	rjmp	.-10     	; 0x159a <translateTo+0xc>
			
		}
		SUBPASSO_TRANS = 0;
    15a4:	10 92 f8 01 	sts	0x01F8, r1
    15a8:	10 92 f7 01 	sts	0x01F7, r1
    15ac:	1b c0       	rjmp	.+54     	; 0x15e4 <translateTo+0x56>
	}else{
		if(pos>SUBPASSO_TRANS){
    15ae:	80 91 f7 01 	lds	r24, 0x01F7
    15b2:	90 91 f8 01 	lds	r25, 0x01F8
    15b6:	8c 17       	cp	r24, r28
    15b8:	9d 07       	cpc	r25, r29
    15ba:	54 f4       	brge	.+20     	; 0x15d0 <translateTo+0x42>
			while(pos>SUBPASSO_TRANS){
    15bc:	80 91 f7 01 	lds	r24, 0x01F7
    15c0:	90 91 f8 01 	lds	r25, 0x01F8
    15c4:	8c 17       	cp	r24, r28
    15c6:	9d 07       	cpc	r25, r29
    15c8:	6c f4       	brge	.+26     	; 0x15e4 <translateTo+0x56>
				passoFRENTE();
    15ca:	0e 94 35 0a 	call	0x146a	; 0x146a <passoFRENTE>
    15ce:	f6 cf       	rjmp	.-20     	; 0x15bc <translateTo+0x2e>
			}				
		}else{
			while(pos<SUBPASSO_TRANS){
    15d0:	80 91 f7 01 	lds	r24, 0x01F7
    15d4:	90 91 f8 01 	lds	r25, 0x01F8
    15d8:	c8 17       	cp	r28, r24
    15da:	d9 07       	cpc	r29, r25
    15dc:	1c f4       	brge	.+6      	; 0x15e4 <translateTo+0x56>
				passoTRAS();
    15de:	0e 94 77 0a 	call	0x14ee	; 0x14ee <passoTRAS>
    15e2:	f6 cf       	rjmp	.-20     	; 0x15d0 <translateTo+0x42>
			}			
		}
	}
	soltaTrans();
}
    15e4:	df 91       	pop	r29
    15e6:	cf 91       	pop	r28
			while(pos<SUBPASSO_TRANS){
				passoTRAS();
			}			
		}
	}
	soltaTrans();
    15e8:	0c 94 c0 0a 	jmp	0x1580	; 0x1580 <soltaTrans>

000015ec <treme>:
}
void treme(){
	passoTRAS();
    15ec:	0e 94 77 0a 	call	0x14ee	; 0x14ee <passoTRAS>
	passoTRAS();
    15f0:	0e 94 77 0a 	call	0x14ee	; 0x14ee <passoTRAS>
	passoTRAS();
    15f4:	0e 94 77 0a 	call	0x14ee	; 0x14ee <passoTRAS>
	passoTRAS();
    15f8:	0e 94 77 0a 	call	0x14ee	; 0x14ee <passoTRAS>
	passoFRENTE();
    15fc:	0e 94 35 0a 	call	0x146a	; 0x146a <passoFRENTE>
	passoFRENTE();
    1600:	0e 94 35 0a 	call	0x146a	; 0x146a <passoFRENTE>
	passoFRENTE();
    1604:	0e 94 35 0a 	call	0x146a	; 0x146a <passoFRENTE>
	passoFRENTE();
    1608:	0e 94 35 0a 	call	0x146a	; 0x146a <passoFRENTE>
	passoFRENTE();
    160c:	0e 94 35 0a 	call	0x146a	; 0x146a <passoFRENTE>
	passoFRENTE();
    1610:	0e 94 35 0a 	call	0x146a	; 0x146a <passoFRENTE>
	passoFRENTE();
    1614:	0e 94 35 0a 	call	0x146a	; 0x146a <passoFRENTE>
	passoFRENTE();
    1618:	0e 94 35 0a 	call	0x146a	; 0x146a <passoFRENTE>
	passoTRAS();
    161c:	0e 94 77 0a 	call	0x14ee	; 0x14ee <passoTRAS>
	passoTRAS();
    1620:	0e 94 77 0a 	call	0x14ee	; 0x14ee <passoTRAS>
	passoTRAS();
    1624:	0e 94 77 0a 	call	0x14ee	; 0x14ee <passoTRAS>
	passoTRAS();
    1628:	0e 94 77 0a 	call	0x14ee	; 0x14ee <passoTRAS>
	passoTRAS();
    162c:	0e 94 77 0a 	call	0x14ee	; 0x14ee <passoTRAS>
	passoTRAS();
    1630:	0e 94 77 0a 	call	0x14ee	; 0x14ee <passoTRAS>
	passoTRAS();
    1634:	0e 94 77 0a 	call	0x14ee	; 0x14ee <passoTRAS>
	passoTRAS();
    1638:	0e 94 77 0a 	call	0x14ee	; 0x14ee <passoTRAS>
	passoFRENTE();
    163c:	0e 94 35 0a 	call	0x146a	; 0x146a <passoFRENTE>
	passoFRENTE();
    1640:	0e 94 35 0a 	call	0x146a	; 0x146a <passoFRENTE>
	passoFRENTE();
    1644:	0e 94 35 0a 	call	0x146a	; 0x146a <passoFRENTE>
	passoFRENTE();
    1648:	0e 94 35 0a 	call	0x146a	; 0x146a <passoFRENTE>
	passoFRENTE();
    164c:	0e 94 35 0a 	call	0x146a	; 0x146a <passoFRENTE>
	passoFRENTE();
    1650:	0e 94 35 0a 	call	0x146a	; 0x146a <passoFRENTE>
	passoFRENTE();
    1654:	0e 94 35 0a 	call	0x146a	; 0x146a <passoFRENTE>
	passoFRENTE();
    1658:	0e 94 35 0a 	call	0x146a	; 0x146a <passoFRENTE>
	passoTRAS();
    165c:	0e 94 77 0a 	call	0x14ee	; 0x14ee <passoTRAS>
	passoTRAS();
    1660:	0e 94 77 0a 	call	0x14ee	; 0x14ee <passoTRAS>
	passoTRAS();
    1664:	0e 94 77 0a 	call	0x14ee	; 0x14ee <passoTRAS>
	passoTRAS();
    1668:	0e 94 77 0a 	call	0x14ee	; 0x14ee <passoTRAS>
	passoTRAS();
    166c:	0e 94 77 0a 	call	0x14ee	; 0x14ee <passoTRAS>
	passoTRAS();
    1670:	0e 94 77 0a 	call	0x14ee	; 0x14ee <passoTRAS>
	passoTRAS();
    1674:	0e 94 77 0a 	call	0x14ee	; 0x14ee <passoTRAS>
	passoTRAS();
    1678:	0e 94 77 0a 	call	0x14ee	; 0x14ee <passoTRAS>
	passoFRENTE();
    167c:	0e 94 35 0a 	call	0x146a	; 0x146a <passoFRENTE>
	passoFRENTE();
    1680:	0e 94 35 0a 	call	0x146a	; 0x146a <passoFRENTE>
	passoFRENTE();
    1684:	0e 94 35 0a 	call	0x146a	; 0x146a <passoFRENTE>
	passoFRENTE();
    1688:	0e 94 35 0a 	call	0x146a	; 0x146a <passoFRENTE>
	soltaTrans();
    168c:	0e 94 c0 0a 	call	0x1580	; 0x1580 <soltaTrans>
	passoROTANT();
    1690:	0e 94 eb 09 	call	0x13d6	; 0x13d6 <passoROTANT>
	passoROTANT();
    1694:	0e 94 eb 09 	call	0x13d6	; 0x13d6 <passoROTANT>
	passoROTANT();
    1698:	0e 94 eb 09 	call	0x13d6	; 0x13d6 <passoROTANT>
	passoROTANT();
    169c:	0e 94 eb 09 	call	0x13d6	; 0x13d6 <passoROTANT>
	passoROTHOR();
    16a0:	0e 94 a1 09 	call	0x1342	; 0x1342 <passoROTHOR>
	passoROTHOR();
    16a4:	0e 94 a1 09 	call	0x1342	; 0x1342 <passoROTHOR>
	passoROTHOR();
    16a8:	0e 94 a1 09 	call	0x1342	; 0x1342 <passoROTHOR>
	passoROTHOR();
    16ac:	0e 94 a1 09 	call	0x1342	; 0x1342 <passoROTHOR>
	passoROTHOR();
    16b0:	0e 94 a1 09 	call	0x1342	; 0x1342 <passoROTHOR>
	passoROTHOR();
    16b4:	0e 94 a1 09 	call	0x1342	; 0x1342 <passoROTHOR>
	passoROTHOR();
    16b8:	0e 94 a1 09 	call	0x1342	; 0x1342 <passoROTHOR>
	passoROTHOR();
    16bc:	0e 94 a1 09 	call	0x1342	; 0x1342 <passoROTHOR>
	passoROTANT();
    16c0:	0e 94 eb 09 	call	0x13d6	; 0x13d6 <passoROTANT>
	passoROTANT();
    16c4:	0e 94 eb 09 	call	0x13d6	; 0x13d6 <passoROTANT>
	passoROTANT();
    16c8:	0e 94 eb 09 	call	0x13d6	; 0x13d6 <passoROTANT>
	passoROTANT();
    16cc:	0e 94 eb 09 	call	0x13d6	; 0x13d6 <passoROTANT>
	passoROTANT();
    16d0:	0e 94 eb 09 	call	0x13d6	; 0x13d6 <passoROTANT>
	passoROTANT();
    16d4:	0e 94 eb 09 	call	0x13d6	; 0x13d6 <passoROTANT>
	passoROTANT();
    16d8:	0e 94 eb 09 	call	0x13d6	; 0x13d6 <passoROTANT>
	passoROTANT();
    16dc:	0e 94 eb 09 	call	0x13d6	; 0x13d6 <passoROTANT>
	passoROTHOR();
    16e0:	0e 94 a1 09 	call	0x1342	; 0x1342 <passoROTHOR>
	passoROTHOR();
    16e4:	0e 94 a1 09 	call	0x1342	; 0x1342 <passoROTHOR>
	passoROTHOR();
    16e8:	0e 94 a1 09 	call	0x1342	; 0x1342 <passoROTHOR>
	passoROTHOR();
    16ec:	0e 94 a1 09 	call	0x1342	; 0x1342 <passoROTHOR>
	passoROTHOR();
    16f0:	0e 94 a1 09 	call	0x1342	; 0x1342 <passoROTHOR>
	passoROTHOR();
    16f4:	0e 94 a1 09 	call	0x1342	; 0x1342 <passoROTHOR>
	passoROTHOR();
    16f8:	0e 94 a1 09 	call	0x1342	; 0x1342 <passoROTHOR>
	passoROTHOR();
    16fc:	0e 94 a1 09 	call	0x1342	; 0x1342 <passoROTHOR>
	passoROTANT();
    1700:	0e 94 eb 09 	call	0x13d6	; 0x13d6 <passoROTANT>
	passoROTANT();
    1704:	0e 94 eb 09 	call	0x13d6	; 0x13d6 <passoROTANT>
	passoROTANT();
    1708:	0e 94 eb 09 	call	0x13d6	; 0x13d6 <passoROTANT>
	passoROTANT();
    170c:	0e 94 eb 09 	call	0x13d6	; 0x13d6 <passoROTANT>
	passoROTANT();
    1710:	0e 94 eb 09 	call	0x13d6	; 0x13d6 <passoROTANT>
	passoROTANT();
    1714:	0e 94 eb 09 	call	0x13d6	; 0x13d6 <passoROTANT>
	passoROTANT();
    1718:	0e 94 eb 09 	call	0x13d6	; 0x13d6 <passoROTANT>
	passoROTANT();
    171c:	0e 94 eb 09 	call	0x13d6	; 0x13d6 <passoROTANT>
	passoROTHOR();
    1720:	0e 94 a1 09 	call	0x1342	; 0x1342 <passoROTHOR>
	passoROTHOR();
    1724:	0e 94 a1 09 	call	0x1342	; 0x1342 <passoROTHOR>
	passoROTHOR();
    1728:	0e 94 a1 09 	call	0x1342	; 0x1342 <passoROTHOR>
	passoROTHOR();
    172c:	0e 94 a1 09 	call	0x1342	; 0x1342 <passoROTHOR>
	soltaROT();
    1730:	0e 94 9c 09 	call	0x1338	; 0x1338 <soltaROT>
    1734:	2f e7       	ldi	r18, 0x7F	; 127
    1736:	88 e3       	ldi	r24, 0x38	; 56
    1738:	91 e0       	ldi	r25, 0x01	; 1
    173a:	21 50       	subi	r18, 0x01	; 1
    173c:	80 40       	sbci	r24, 0x00	; 0
    173e:	90 40       	sbci	r25, 0x00	; 0
    1740:	e1 f7       	brne	.-8      	; 0x173a <treme+0x14e>
    1742:	00 c0       	rjmp	.+0      	; 0x1744 <treme+0x158>
    1744:	00 00       	nop
    1746:	08 95       	ret

00001748 <initSensores>:
#define APAGA_TODOS {PORTC=0;}
#define TEMPO_LEITURA (100) //ms

void carregarCalibracaoEEPROM();
void initSensores(){
	ADMUX = (1<<REFS0);
    1748:	80 e4       	ldi	r24, 0x40	; 64
    174a:	80 93 7c 00 	sts	0x007C, r24
	ADCSRA = (1<<ADEN)|(1<<ADPS2)|(1<<ADPS1);//div 64
    174e:	86 e8       	ldi	r24, 0x86	; 134
    1750:	80 93 7a 00 	sts	0x007A, r24
	//resultado em ADC
	DIDR0 = (1<<PINO_DIR)|(1<<PINO_ESQ)|(1<<PINO_MID);//quando 1=ADC, 0=GPIO
    1754:	88 e3       	ldi	r24, 0x38	; 56
    1756:	80 93 7e 00 	sts	0x007E, r24
	DDRC |= 0b00000111;
    175a:	87 b1       	in	r24, 0x07	; 7
    175c:	87 60       	ori	r24, 0x07	; 7
    175e:	87 b9       	out	0x07, r24	; 7
	APAGA_TODOS
    1760:	18 b8       	out	0x08, r1	; 8
    1762:	08 95       	ret

00001764 <lerPino>:
	197,240,324,848,459,501,595,928
*/
	//carregarCalibracaoEEPROM();
}
uint16_t lerPino(uint8_t p){
	ADMUX = (ADMUX&0b11110000)|(p&0b00001111);
    1764:	90 91 7c 00 	lds	r25, 0x007C
    1768:	8f 70       	andi	r24, 0x0F	; 15
    176a:	90 7f       	andi	r25, 0xF0	; 240
    176c:	89 2b       	or	r24, r25
    176e:	80 93 7c 00 	sts	0x007C, r24
	ADCSRA |= (1<<ADSC);
    1772:	80 91 7a 00 	lds	r24, 0x007A
    1776:	80 64       	ori	r24, 0x40	; 64
    1778:	80 93 7a 00 	sts	0x007A, r24
	while(ADCSRA&(1<<ADSC));
    177c:	80 91 7a 00 	lds	r24, 0x007A
    1780:	86 fd       	sbrc	r24, 6
    1782:	fc cf       	rjmp	.-8      	; 0x177c <lerPino+0x18>
	return ADC;
    1784:	80 91 78 00 	lds	r24, 0x0078
    1788:	90 91 79 00 	lds	r25, 0x0079
}
    178c:	08 95       	ret

0000178e <fazerLeituraCorBruto>:
		CALIBRACAO[2][7]+=lerPino(PINO_DIR);
	}
	for(a=0;a<3;a++)
		for(b=4;b<8;b++)CALIBRACAO[a][b]>>=2; // => /=4
}
void fazerLeituraCorBruto(){
    178e:	cf 93       	push	r28
    1790:	df 93       	push	r29
	ACENDE_RED;
    1792:	84 e0       	ldi	r24, 0x04	; 4
    1794:	88 b9       	out	0x08, r24	; 8
    1796:	2f ef       	ldi	r18, 0xFF	; 255
    1798:	80 e7       	ldi	r24, 0x70	; 112
    179a:	92 e0       	ldi	r25, 0x02	; 2
    179c:	21 50       	subi	r18, 0x01	; 1
    179e:	80 40       	sbci	r24, 0x00	; 0
    17a0:	90 40       	sbci	r25, 0x00	; 0
    17a2:	e1 f7       	brne	.-8      	; 0x179c <fazerLeituraCorBruto+0xe>
    17a4:	00 c0       	rjmp	.+0      	; 0x17a6 <fazerLeituraCorBruto+0x18>
    17a6:	00 00       	nop
	_delay_ms(TEMPO_LEITURA);
	ULTIMA_LEITURA[0][0] = lerPino(PINO_ESQ);
    17a8:	84 e0       	ldi	r24, 0x04	; 4
    17aa:	0e 94 b2 0b 	call	0x1764	; 0x1764 <lerPino>
    17ae:	c9 ef       	ldi	r28, 0xF9	; 249
    17b0:	d1 e0       	ldi	r29, 0x01	; 1
    17b2:	99 83       	std	Y+1, r25	; 0x01
    17b4:	88 83       	st	Y, r24
	ULTIMA_LEITURA[1][0] = lerPino(PINO_MID);
    17b6:	85 e0       	ldi	r24, 0x05	; 5
    17b8:	0e 94 b2 0b 	call	0x1764	; 0x1764 <lerPino>
    17bc:	99 87       	std	Y+9, r25	; 0x09
    17be:	88 87       	std	Y+8, r24	; 0x08
	ULTIMA_LEITURA[2][0] = lerPino(PINO_DIR);
    17c0:	83 e0       	ldi	r24, 0x03	; 3
    17c2:	0e 94 b2 0b 	call	0x1764	; 0x1764 <lerPino>
    17c6:	99 8b       	std	Y+17, r25	; 0x11
    17c8:	88 8b       	std	Y+16, r24	; 0x10
	ACENDE_GRE;
    17ca:	81 e0       	ldi	r24, 0x01	; 1
    17cc:	88 b9       	out	0x08, r24	; 8
    17ce:	2f ef       	ldi	r18, 0xFF	; 255
    17d0:	80 e7       	ldi	r24, 0x70	; 112
    17d2:	92 e0       	ldi	r25, 0x02	; 2
    17d4:	21 50       	subi	r18, 0x01	; 1
    17d6:	80 40       	sbci	r24, 0x00	; 0
    17d8:	90 40       	sbci	r25, 0x00	; 0
    17da:	e1 f7       	brne	.-8      	; 0x17d4 <fazerLeituraCorBruto+0x46>
    17dc:	00 c0       	rjmp	.+0      	; 0x17de <fazerLeituraCorBruto+0x50>
    17de:	00 00       	nop
	_delay_ms(TEMPO_LEITURA);
	ULTIMA_LEITURA[0][1] = lerPino(PINO_ESQ);
    17e0:	84 e0       	ldi	r24, 0x04	; 4
    17e2:	0e 94 b2 0b 	call	0x1764	; 0x1764 <lerPino>
    17e6:	9b 83       	std	Y+3, r25	; 0x03
    17e8:	8a 83       	std	Y+2, r24	; 0x02
	ULTIMA_LEITURA[1][1] = lerPino(PINO_MID);
    17ea:	85 e0       	ldi	r24, 0x05	; 5
    17ec:	0e 94 b2 0b 	call	0x1764	; 0x1764 <lerPino>
    17f0:	9b 87       	std	Y+11, r25	; 0x0b
    17f2:	8a 87       	std	Y+10, r24	; 0x0a
	ULTIMA_LEITURA[2][1] = lerPino(PINO_DIR);
    17f4:	83 e0       	ldi	r24, 0x03	; 3
    17f6:	0e 94 b2 0b 	call	0x1764	; 0x1764 <lerPino>
    17fa:	9b 8b       	std	Y+19, r25	; 0x13
    17fc:	8a 8b       	std	Y+18, r24	; 0x12
	ACENDE_BLU;
    17fe:	82 e0       	ldi	r24, 0x02	; 2
    1800:	88 b9       	out	0x08, r24	; 8
    1802:	2f ef       	ldi	r18, 0xFF	; 255
    1804:	80 e7       	ldi	r24, 0x70	; 112
    1806:	92 e0       	ldi	r25, 0x02	; 2
    1808:	21 50       	subi	r18, 0x01	; 1
    180a:	80 40       	sbci	r24, 0x00	; 0
    180c:	90 40       	sbci	r25, 0x00	; 0
    180e:	e1 f7       	brne	.-8      	; 0x1808 <fazerLeituraCorBruto+0x7a>
    1810:	00 c0       	rjmp	.+0      	; 0x1812 <fazerLeituraCorBruto+0x84>
    1812:	00 00       	nop
	_delay_ms(TEMPO_LEITURA);
	ULTIMA_LEITURA[0][2] = lerPino(PINO_ESQ);
    1814:	84 e0       	ldi	r24, 0x04	; 4
    1816:	0e 94 b2 0b 	call	0x1764	; 0x1764 <lerPino>
    181a:	9d 83       	std	Y+5, r25	; 0x05
    181c:	8c 83       	std	Y+4, r24	; 0x04
	ULTIMA_LEITURA[1][2] = lerPino(PINO_MID);
    181e:	85 e0       	ldi	r24, 0x05	; 5
    1820:	0e 94 b2 0b 	call	0x1764	; 0x1764 <lerPino>
    1824:	9d 87       	std	Y+13, r25	; 0x0d
    1826:	8c 87       	std	Y+12, r24	; 0x0c
	ULTIMA_LEITURA[2][2] = lerPino(PINO_DIR);
    1828:	83 e0       	ldi	r24, 0x03	; 3
    182a:	0e 94 b2 0b 	call	0x1764	; 0x1764 <lerPino>
    182e:	9d 8b       	std	Y+21, r25	; 0x15
    1830:	8c 8b       	std	Y+20, r24	; 0x14
	APAGA_TODOS;
    1832:	18 b8       	out	0x08, r1	; 8
    1834:	2f ef       	ldi	r18, 0xFF	; 255
    1836:	80 e7       	ldi	r24, 0x70	; 112
    1838:	92 e0       	ldi	r25, 0x02	; 2
    183a:	21 50       	subi	r18, 0x01	; 1
    183c:	80 40       	sbci	r24, 0x00	; 0
    183e:	90 40       	sbci	r25, 0x00	; 0
    1840:	e1 f7       	brne	.-8      	; 0x183a <fazerLeituraCorBruto+0xac>
    1842:	00 c0       	rjmp	.+0      	; 0x1844 <fazerLeituraCorBruto+0xb6>
    1844:	00 00       	nop
	_delay_ms(TEMPO_LEITURA);
	ULTIMA_LEITURA[0][3] = lerPino(PINO_ESQ);
    1846:	84 e0       	ldi	r24, 0x04	; 4
    1848:	0e 94 b2 0b 	call	0x1764	; 0x1764 <lerPino>
    184c:	9f 83       	std	Y+7, r25	; 0x07
    184e:	8e 83       	std	Y+6, r24	; 0x06
	ULTIMA_LEITURA[1][3] = lerPino(PINO_MID);
    1850:	85 e0       	ldi	r24, 0x05	; 5
    1852:	0e 94 b2 0b 	call	0x1764	; 0x1764 <lerPino>
    1856:	9f 87       	std	Y+15, r25	; 0x0f
    1858:	8e 87       	std	Y+14, r24	; 0x0e
	ULTIMA_LEITURA[2][3] = lerPino(PINO_DIR);
    185a:	83 e0       	ldi	r24, 0x03	; 3
    185c:	0e 94 b2 0b 	call	0x1764	; 0x1764 <lerPino>
    1860:	9f 8b       	std	Y+23, r25	; 0x17
    1862:	8e 8b       	std	Y+22, r24	; 0x16
}
    1864:	df 91       	pop	r29
    1866:	cf 91       	pop	r28
    1868:	08 95       	ret

0000186a <girarCubo>:
#define CUBOBASIC_H_
#include "motores.h"
#include "sensores.h"
#include <util/delay.h>

char girarCubo(int16_t graus){
    186a:	cf 93       	push	r28
    186c:	df 93       	push	r29
    186e:	ec 01       	movw	r28, r24
	levantaBraco();
    1870:	0e 94 56 09 	call	0x12ac	; 0x12ac <levantaBraco>
	switch(graus){
    1874:	c6 3a       	cpi	r28, 0xA6	; 166
    1876:	8f ef       	ldi	r24, 0xFF	; 255
    1878:	d8 07       	cpc	r29, r24
    187a:	09 f4       	brne	.+2      	; 0x187e <girarCubo+0x14>
    187c:	3f c0       	rjmp	.+126    	; 0x18fc <girarCubo+0x92>
    187e:	8c f4       	brge	.+34     	; 0x18a2 <girarCubo+0x38>
    1880:	c2 3f       	cpi	r28, 0xF2	; 242
    1882:	8e ef       	ldi	r24, 0xFE	; 254
    1884:	d8 07       	cpc	r29, r24
    1886:	09 f4       	brne	.+2      	; 0x188a <girarCubo+0x20>
    1888:	47 c0       	rjmp	.+142    	; 0x1918 <girarCubo+0xae>
    188a:	cc 34       	cpi	r28, 0x4C	; 76
    188c:	8f ef       	ldi	r24, 0xFF	; 255
    188e:	d8 07       	cpc	r29, r24
    1890:	09 f4       	brne	.+2      	; 0x1894 <girarCubo+0x2a>
    1892:	3b c0       	rjmp	.+118    	; 0x190a <girarCubo+0xa0>
    1894:	c8 39       	cpi	r28, 0x98	; 152
    1896:	de 4f       	sbci	r29, 0xFE	; 254
    1898:	09 f0       	breq	.+2      	; 0x189c <girarCubo+0x32>
    189a:	49 c0       	rjmp	.+146    	; 0x192e <girarCubo+0xc4>
    189c:	c0 ee       	ldi	r28, 0xE0	; 224
    189e:	d1 e0       	ldi	r29, 0x01	; 1
    18a0:	42 c0       	rjmp	.+132    	; 0x1926 <girarCubo+0xbc>
    18a2:	c4 3b       	cpi	r28, 0xB4	; 180
    18a4:	d1 05       	cpc	r29, r1
    18a6:	b9 f0       	breq	.+46     	; 0x18d6 <girarCubo+0x6c>
    18a8:	3c f4       	brge	.+14     	; 0x18b8 <girarCubo+0x4e>
    18aa:	ca 35       	cpi	r28, 0x5A	; 90
    18ac:	d1 05       	cpc	r29, r1
    18ae:	09 f0       	breq	.+2      	; 0x18b2 <girarCubo+0x48>
    18b0:	3e c0       	rjmp	.+124    	; 0x192e <girarCubo+0xc4>
    18b2:	c8 e7       	ldi	r28, 0x78	; 120
    18b4:	d0 e0       	ldi	r29, 0x00	; 0
    18b6:	0a c0       	rjmp	.+20     	; 0x18cc <girarCubo+0x62>
    18b8:	ce 30       	cpi	r28, 0x0E	; 14
    18ba:	81 e0       	ldi	r24, 0x01	; 1
    18bc:	d8 07       	cpc	r29, r24
    18be:	91 f0       	breq	.+36     	; 0x18e4 <girarCubo+0x7a>
    18c0:	c8 36       	cpi	r28, 0x68	; 104
    18c2:	d1 40       	sbci	r29, 0x01	; 1
    18c4:	a1 f5       	brne	.+104    	; 0x192e <girarCubo+0xc4>
    18c6:	c0 ee       	ldi	r28, 0xE0	; 224
    18c8:	d1 e0       	ldi	r29, 0x01	; 1
    18ca:	13 c0       	rjmp	.+38     	; 0x18f2 <girarCubo+0x88>
		case 90:
		for(int a=0;a<120;a++)passoROTHOR();
    18cc:	0e 94 a1 09 	call	0x1342	; 0x1342 <passoROTHOR>
    18d0:	21 97       	sbiw	r28, 0x01	; 1
    18d2:	e1 f7       	brne	.-8      	; 0x18cc <girarCubo+0x62>
    18d4:	2c c0       	rjmp	.+88     	; 0x192e <girarCubo+0xc4>
#include "sensores.h"
#include <util/delay.h>

char girarCubo(int16_t graus){
	levantaBraco();
	switch(graus){
    18d6:	c0 ef       	ldi	r28, 0xF0	; 240
    18d8:	d0 e0       	ldi	r29, 0x00	; 0
		case 90:
		for(int a=0;a<120;a++)passoROTHOR();
		break;
		case 180:
		for(int a=0;a<240;a++)passoROTHOR();
    18da:	0e 94 a1 09 	call	0x1342	; 0x1342 <passoROTHOR>
    18de:	21 97       	sbiw	r28, 0x01	; 1
    18e0:	e1 f7       	brne	.-8      	; 0x18da <girarCubo+0x70>
    18e2:	25 c0       	rjmp	.+74     	; 0x192e <girarCubo+0xc4>
#include "sensores.h"
#include <util/delay.h>

char girarCubo(int16_t graus){
	levantaBraco();
	switch(graus){
    18e4:	c8 e6       	ldi	r28, 0x68	; 104
    18e6:	d1 e0       	ldi	r29, 0x01	; 1
		break;
		case 180:
		for(int a=0;a<240;a++)passoROTHOR();
		break;
		case 270:
		for(int a=0;a<360;a++)passoROTHOR();
    18e8:	0e 94 a1 09 	call	0x1342	; 0x1342 <passoROTHOR>
    18ec:	21 97       	sbiw	r28, 0x01	; 1
    18ee:	e1 f7       	brne	.-8      	; 0x18e8 <girarCubo+0x7e>
    18f0:	1e c0       	rjmp	.+60     	; 0x192e <girarCubo+0xc4>
		break;
		case 360:
		for(int a=0;a<480;a++)passoROTHOR();
    18f2:	0e 94 a1 09 	call	0x1342	; 0x1342 <passoROTHOR>
    18f6:	21 97       	sbiw	r28, 0x01	; 1
    18f8:	e1 f7       	brne	.-8      	; 0x18f2 <girarCubo+0x88>
    18fa:	19 c0       	rjmp	.+50     	; 0x192e <girarCubo+0xc4>
#include "sensores.h"
#include <util/delay.h>

char girarCubo(int16_t graus){
	levantaBraco();
	switch(graus){
    18fc:	c8 e7       	ldi	r28, 0x78	; 120
    18fe:	d0 e0       	ldi	r29, 0x00	; 0
		break;
		case 360:
		for(int a=0;a<480;a++)passoROTHOR();
		break;
		case -90:
		for(int a=0;a<120;a++)passoROTANT();
    1900:	0e 94 eb 09 	call	0x13d6	; 0x13d6 <passoROTANT>
    1904:	21 97       	sbiw	r28, 0x01	; 1
    1906:	e1 f7       	brne	.-8      	; 0x1900 <girarCubo+0x96>
    1908:	12 c0       	rjmp	.+36     	; 0x192e <girarCubo+0xc4>
#include "sensores.h"
#include <util/delay.h>

char girarCubo(int16_t graus){
	levantaBraco();
	switch(graus){
    190a:	c0 ef       	ldi	r28, 0xF0	; 240
    190c:	d0 e0       	ldi	r29, 0x00	; 0
		break;
		case -90:
		for(int a=0;a<120;a++)passoROTANT();
		break;
		case -180:
		for(int a=0;a<240;a++)passoROTANT();
    190e:	0e 94 eb 09 	call	0x13d6	; 0x13d6 <passoROTANT>
    1912:	21 97       	sbiw	r28, 0x01	; 1
    1914:	e1 f7       	brne	.-8      	; 0x190e <girarCubo+0xa4>
    1916:	0b c0       	rjmp	.+22     	; 0x192e <girarCubo+0xc4>
#include "sensores.h"
#include <util/delay.h>

char girarCubo(int16_t graus){
	levantaBraco();
	switch(graus){
    1918:	c8 e6       	ldi	r28, 0x68	; 104
    191a:	d1 e0       	ldi	r29, 0x01	; 1
		break;
		case -180:
		for(int a=0;a<240;a++)passoROTANT();
		break;
		case -270:
		for(int a=0;a<360;a++)passoROTANT();
    191c:	0e 94 eb 09 	call	0x13d6	; 0x13d6 <passoROTANT>
    1920:	21 97       	sbiw	r28, 0x01	; 1
    1922:	e1 f7       	brne	.-8      	; 0x191c <girarCubo+0xb2>
    1924:	04 c0       	rjmp	.+8      	; 0x192e <girarCubo+0xc4>
		break;
		case -360:
		for(int a=0;a<480;a++)passoROTANT();
    1926:	0e 94 eb 09 	call	0x13d6	; 0x13d6 <passoROTANT>
    192a:	21 97       	sbiw	r28, 0x01	; 1
    192c:	e1 f7       	brne	.-8      	; 0x1926 <girarCubo+0xbc>
		break;
	}
	soltaROT();
    192e:	0e 94 9c 09 	call	0x1338	; 0x1338 <soltaROT>
	soltaBraco();
    1932:	0e 94 7a 09 	call	0x12f4	; 0x12f4 <soltaBraco>
	return 1;
}
    1936:	81 e0       	ldi	r24, 0x01	; 1
    1938:	df 91       	pop	r29
    193a:	cf 91       	pop	r28
    193c:	08 95       	ret

0000193e <torceCubo>:
char torceCubo(int16_t graus){
    193e:	cf 93       	push	r28
    1940:	df 93       	push	r29
	const int k = 10;
	switch(graus){
    1942:	86 3a       	cpi	r24, 0xA6	; 166
    1944:	2f ef       	ldi	r18, 0xFF	; 255
    1946:	92 07       	cpc	r25, r18
    1948:	09 f4       	brne	.+2      	; 0x194c <torceCubo+0xe>
    194a:	58 c0       	rjmp	.+176    	; 0x19fc <torceCubo+0xbe>
    194c:	8c f4       	brge	.+34     	; 0x1970 <torceCubo+0x32>
    194e:	82 3f       	cpi	r24, 0xF2	; 242
    1950:	2e ef       	ldi	r18, 0xFE	; 254
    1952:	92 07       	cpc	r25, r18
    1954:	09 f4       	brne	.+2      	; 0x1958 <torceCubo+0x1a>
    1956:	6c c0       	rjmp	.+216    	; 0x1a30 <torceCubo+0xf2>
    1958:	8c 34       	cpi	r24, 0x4C	; 76
    195a:	2f ef       	ldi	r18, 0xFF	; 255
    195c:	92 07       	cpc	r25, r18
    195e:	09 f4       	brne	.+2      	; 0x1962 <torceCubo+0x24>
    1960:	5a c0       	rjmp	.+180    	; 0x1a16 <torceCubo+0xd8>
    1962:	88 39       	cpi	r24, 0x98	; 152
    1964:	9e 4f       	sbci	r25, 0xFE	; 254
    1966:	09 f0       	breq	.+2      	; 0x196a <torceCubo+0x2c>
    1968:	7a c0       	rjmp	.+244    	; 0x1a5e <torceCubo+0x120>
    196a:	ca ee       	ldi	r28, 0xEA	; 234
    196c:	d1 e0       	ldi	r29, 0x01	; 1
    196e:	6d c0       	rjmp	.+218    	; 0x1a4a <torceCubo+0x10c>
    1970:	84 3b       	cpi	r24, 0xB4	; 180
    1972:	91 05       	cpc	r25, r1
    1974:	f1 f0       	breq	.+60     	; 0x19b2 <torceCubo+0x74>
    1976:	3c f4       	brge	.+14     	; 0x1986 <torceCubo+0x48>
    1978:	8a 35       	cpi	r24, 0x5A	; 90
    197a:	91 05       	cpc	r25, r1
    197c:	09 f0       	breq	.+2      	; 0x1980 <torceCubo+0x42>
    197e:	6f c0       	rjmp	.+222    	; 0x1a5e <torceCubo+0x120>
    1980:	c2 e8       	ldi	r28, 0x82	; 130
    1982:	d0 e0       	ldi	r29, 0x00	; 0
    1984:	0b c0       	rjmp	.+22     	; 0x199c <torceCubo+0x5e>
    1986:	8e 30       	cpi	r24, 0x0E	; 14
    1988:	21 e0       	ldi	r18, 0x01	; 1
    198a:	92 07       	cpc	r25, r18
    198c:	f9 f0       	breq	.+62     	; 0x19cc <torceCubo+0x8e>
    198e:	88 36       	cpi	r24, 0x68	; 104
    1990:	91 40       	sbci	r25, 0x01	; 1
    1992:	09 f0       	breq	.+2      	; 0x1996 <torceCubo+0x58>
    1994:	64 c0       	rjmp	.+200    	; 0x1a5e <torceCubo+0x120>
    1996:	ca ee       	ldi	r28, 0xEA	; 234
    1998:	d1 e0       	ldi	r29, 0x01	; 1
    199a:	25 c0       	rjmp	.+74     	; 0x19e6 <torceCubo+0xa8>
		case 90:
		for(int a=0;a<120+k;a++)passoROTHOR();
    199c:	0e 94 a1 09 	call	0x1342	; 0x1342 <passoROTHOR>
    19a0:	21 97       	sbiw	r28, 0x01	; 1
    19a2:	e1 f7       	brne	.-8      	; 0x199c <torceCubo+0x5e>
    19a4:	ca e0       	ldi	r28, 0x0A	; 10
    19a6:	d0 e0       	ldi	r29, 0x00	; 0
		for(int a=0;a<k;a++)passoROTANT();
    19a8:	0e 94 eb 09 	call	0x13d6	; 0x13d6 <passoROTANT>
    19ac:	21 97       	sbiw	r28, 0x01	; 1
    19ae:	e1 f7       	brne	.-8      	; 0x19a8 <torceCubo+0x6a>
    19b0:	56 c0       	rjmp	.+172    	; 0x1a5e <torceCubo+0x120>
	soltaBraco();
	return 1;
}
char torceCubo(int16_t graus){
	const int k = 10;
	switch(graus){
    19b2:	ca ef       	ldi	r28, 0xFA	; 250
    19b4:	d0 e0       	ldi	r29, 0x00	; 0
		case 90:
		for(int a=0;a<120+k;a++)passoROTHOR();
		for(int a=0;a<k;a++)passoROTANT();
		break;
		case 180:
		for(int a=0;a<240+k;a++)passoROTHOR();
    19b6:	0e 94 a1 09 	call	0x1342	; 0x1342 <passoROTHOR>
    19ba:	21 97       	sbiw	r28, 0x01	; 1
    19bc:	e1 f7       	brne	.-8      	; 0x19b6 <torceCubo+0x78>
    19be:	ca e0       	ldi	r28, 0x0A	; 10
    19c0:	d0 e0       	ldi	r29, 0x00	; 0
		for(int a=0;a<k;a++)passoROTANT();
    19c2:	0e 94 eb 09 	call	0x13d6	; 0x13d6 <passoROTANT>
    19c6:	21 97       	sbiw	r28, 0x01	; 1
    19c8:	e1 f7       	brne	.-8      	; 0x19c2 <torceCubo+0x84>
    19ca:	49 c0       	rjmp	.+146    	; 0x1a5e <torceCubo+0x120>
	soltaBraco();
	return 1;
}
char torceCubo(int16_t graus){
	const int k = 10;
	switch(graus){
    19cc:	c2 e7       	ldi	r28, 0x72	; 114
    19ce:	d1 e0       	ldi	r29, 0x01	; 1
		case 180:
		for(int a=0;a<240+k;a++)passoROTHOR();
		for(int a=0;a<k;a++)passoROTANT();
		break;
		case 270:
		for(int a=0;a<360+k;a++)passoROTHOR();
    19d0:	0e 94 a1 09 	call	0x1342	; 0x1342 <passoROTHOR>
    19d4:	21 97       	sbiw	r28, 0x01	; 1
    19d6:	e1 f7       	brne	.-8      	; 0x19d0 <torceCubo+0x92>
    19d8:	ca e0       	ldi	r28, 0x0A	; 10
    19da:	d0 e0       	ldi	r29, 0x00	; 0
		for(int a=0;a<k;a++)passoROTANT();
    19dc:	0e 94 eb 09 	call	0x13d6	; 0x13d6 <passoROTANT>
    19e0:	21 97       	sbiw	r28, 0x01	; 1
    19e2:	e1 f7       	brne	.-8      	; 0x19dc <torceCubo+0x9e>
    19e4:	3c c0       	rjmp	.+120    	; 0x1a5e <torceCubo+0x120>
		break;
		case 360:
		for(int a=0;a<480+k;a++)passoROTHOR();
    19e6:	0e 94 a1 09 	call	0x1342	; 0x1342 <passoROTHOR>
    19ea:	21 97       	sbiw	r28, 0x01	; 1
    19ec:	e1 f7       	brne	.-8      	; 0x19e6 <torceCubo+0xa8>
    19ee:	ca e0       	ldi	r28, 0x0A	; 10
    19f0:	d0 e0       	ldi	r29, 0x00	; 0
		for(int a=0;a<k;a++)passoROTANT();
    19f2:	0e 94 eb 09 	call	0x13d6	; 0x13d6 <passoROTANT>
    19f6:	21 97       	sbiw	r28, 0x01	; 1
    19f8:	e1 f7       	brne	.-8      	; 0x19f2 <torceCubo+0xb4>
    19fa:	31 c0       	rjmp	.+98     	; 0x1a5e <torceCubo+0x120>
	soltaBraco();
	return 1;
}
char torceCubo(int16_t graus){
	const int k = 10;
	switch(graus){
    19fc:	c2 e8       	ldi	r28, 0x82	; 130
    19fe:	d0 e0       	ldi	r29, 0x00	; 0
		case 360:
		for(int a=0;a<480+k;a++)passoROTHOR();
		for(int a=0;a<k;a++)passoROTANT();
		break;
		case -90:
		for(int a=0;a<120+k;a++)passoROTANT();
    1a00:	0e 94 eb 09 	call	0x13d6	; 0x13d6 <passoROTANT>
    1a04:	21 97       	sbiw	r28, 0x01	; 1
    1a06:	e1 f7       	brne	.-8      	; 0x1a00 <torceCubo+0xc2>
    1a08:	ca e0       	ldi	r28, 0x0A	; 10
    1a0a:	d0 e0       	ldi	r29, 0x00	; 0
		for(int a=0;a<k;a++)passoROTHOR();
    1a0c:	0e 94 a1 09 	call	0x1342	; 0x1342 <passoROTHOR>
    1a10:	21 97       	sbiw	r28, 0x01	; 1
    1a12:	e1 f7       	brne	.-8      	; 0x1a0c <torceCubo+0xce>
    1a14:	24 c0       	rjmp	.+72     	; 0x1a5e <torceCubo+0x120>
	soltaBraco();
	return 1;
}
char torceCubo(int16_t graus){
	const int k = 10;
	switch(graus){
    1a16:	ca ef       	ldi	r28, 0xFA	; 250
    1a18:	d0 e0       	ldi	r29, 0x00	; 0
		case -90:
		for(int a=0;a<120+k;a++)passoROTANT();
		for(int a=0;a<k;a++)passoROTHOR();
		break;
		case -180:
		for(int a=0;a<240+k;a++)passoROTANT();
    1a1a:	0e 94 eb 09 	call	0x13d6	; 0x13d6 <passoROTANT>
    1a1e:	21 97       	sbiw	r28, 0x01	; 1
    1a20:	e1 f7       	brne	.-8      	; 0x1a1a <torceCubo+0xdc>
    1a22:	ca e0       	ldi	r28, 0x0A	; 10
    1a24:	d0 e0       	ldi	r29, 0x00	; 0
		for(int a=0;a<k;a++)passoROTHOR();
    1a26:	0e 94 a1 09 	call	0x1342	; 0x1342 <passoROTHOR>
    1a2a:	21 97       	sbiw	r28, 0x01	; 1
    1a2c:	e1 f7       	brne	.-8      	; 0x1a26 <torceCubo+0xe8>
    1a2e:	17 c0       	rjmp	.+46     	; 0x1a5e <torceCubo+0x120>
	soltaBraco();
	return 1;
}
char torceCubo(int16_t graus){
	const int k = 10;
	switch(graus){
    1a30:	c2 e7       	ldi	r28, 0x72	; 114
    1a32:	d1 e0       	ldi	r29, 0x01	; 1
		case -180:
		for(int a=0;a<240+k;a++)passoROTANT();
		for(int a=0;a<k;a++)passoROTHOR();
		break;
		case -270:
		for(int a=0;a<360+k;a++)passoROTANT();
    1a34:	0e 94 eb 09 	call	0x13d6	; 0x13d6 <passoROTANT>
    1a38:	21 97       	sbiw	r28, 0x01	; 1
    1a3a:	e1 f7       	brne	.-8      	; 0x1a34 <torceCubo+0xf6>
    1a3c:	ca e0       	ldi	r28, 0x0A	; 10
    1a3e:	d0 e0       	ldi	r29, 0x00	; 0
		for(int a=0;a<k;a++)passoROTHOR();
    1a40:	0e 94 a1 09 	call	0x1342	; 0x1342 <passoROTHOR>
    1a44:	21 97       	sbiw	r28, 0x01	; 1
    1a46:	e1 f7       	brne	.-8      	; 0x1a40 <torceCubo+0x102>
    1a48:	0a c0       	rjmp	.+20     	; 0x1a5e <torceCubo+0x120>
		break;
		case -360:
		for(int a=0;a<480+k;a++)passoROTANT();
    1a4a:	0e 94 eb 09 	call	0x13d6	; 0x13d6 <passoROTANT>
    1a4e:	21 97       	sbiw	r28, 0x01	; 1
    1a50:	e1 f7       	brne	.-8      	; 0x1a4a <torceCubo+0x10c>
    1a52:	ca e0       	ldi	r28, 0x0A	; 10
    1a54:	d0 e0       	ldi	r29, 0x00	; 0
		for(int a=0;a<k;a++)passoROTHOR();
    1a56:	0e 94 a1 09 	call	0x1342	; 0x1342 <passoROTHOR>
    1a5a:	21 97       	sbiw	r28, 0x01	; 1
    1a5c:	e1 f7       	brne	.-8      	; 0x1a56 <torceCubo+0x118>
		break;
	}
	soltaROT();
    1a5e:	0e 94 9c 09 	call	0x1338	; 0x1338 <soltaROT>
	return 1;
}
    1a62:	81 e0       	ldi	r24, 0x01	; 1
    1a64:	df 91       	pop	r29
    1a66:	cf 91       	pop	r28
    1a68:	08 95       	ret

00001a6a <tombaCubo>:
char tombaCubo(){
    1a6a:	0f 93       	push	r16
    1a6c:	1f 93       	push	r17
    1a6e:	cf 93       	push	r28
    1a70:	df 93       	push	r29
	uint16_t a, b;
	for(a=0;a<4;a++){
    1a72:	00 e0       	ldi	r16, 0x00	; 0
    1a74:	10 e0       	ldi	r17, 0x00	; 0
		translateTo(0);
    1a76:	80 e0       	ldi	r24, 0x00	; 0
    1a78:	90 e0       	ldi	r25, 0x00	; 0
    1a7a:	0e 94 c7 0a 	call	0x158e	; 0x158e <translateTo>
		//Levanta braco por breve periodo
		BUFFER_BYTE |= (1<<1);
		BUFFER_BYTE &=~(1<<0);
    1a7e:	80 91 e4 02 	lds	r24, 0x02E4
    1a82:	8e 7f       	andi	r24, 0xFE	; 254
    1a84:	82 60       	ori	r24, 0x02	; 2
    1a86:	80 93 e4 02 	sts	0x02E4, r24
		sendFullSPI(BUFFER_BYTE);
    1a8a:	0e 94 1a 09 	call	0x1234	; 0x1234 <sendFullSPI>
    1a8e:	8f e2       	ldi	r24, 0x2F	; 47
    1a90:	95 e7       	ldi	r25, 0x75	; 117
    1a92:	01 97       	sbiw	r24, 0x01	; 1
    1a94:	f1 f7       	brne	.-4      	; 0x1a92 <tombaCubo+0x28>
    1a96:	00 c0       	rjmp	.+0      	; 0x1a98 <tombaCubo+0x2e>
    1a98:	00 00       	nop
		_delay_ms(15);
		BUFFER_BYTE &=~(1<<1);
    1a9a:	80 91 e4 02 	lds	r24, 0x02E4
    1a9e:	8d 7f       	andi	r24, 0xFD	; 253
    1aa0:	80 93 e4 02 	sts	0x02E4, r24
		sendFullSPI(BUFFER_BYTE);
    1aa4:	0e 94 1a 09 	call	0x1234	; 0x1234 <sendFullSPI>
		for(b=0;b<64000;b++){
    1aa8:	c0 e0       	ldi	r28, 0x00	; 0
    1aaa:	d0 e0       	ldi	r29, 0x00	; 0
			if(!(PIND&(1<<6)))b = 65000;
    1aac:	4e 99       	sbic	0x09, 6	; 9
    1aae:	02 c0       	rjmp	.+4      	; 0x1ab4 <tombaCubo+0x4a>
    1ab0:	c8 ee       	ldi	r28, 0xE8	; 232
    1ab2:	dd ef       	ldi	r29, 0xFD	; 253
	#else
		//round up by default
		__ticks_dc = (uint32_t)(ceil(fabs(__tmp)));
	#endif

	__builtin_avr_delay_cycles(__ticks_dc);
    1ab4:	9a e1       	ldi	r25, 0x1A	; 26
    1ab6:	9a 95       	dec	r25
    1ab8:	f1 f7       	brne	.-4      	; 0x1ab6 <tombaCubo+0x4c>
    1aba:	00 c0       	rjmp	.+0      	; 0x1abc <tombaCubo+0x52>
		BUFFER_BYTE &=~(1<<0);
		sendFullSPI(BUFFER_BYTE);
		_delay_ms(15);
		BUFFER_BYTE &=~(1<<1);
		sendFullSPI(BUFFER_BYTE);
		for(b=0;b<64000;b++){
    1abc:	21 96       	adiw	r28, 0x01	; 1
    1abe:	c1 15       	cp	r28, r1
    1ac0:	8a ef       	ldi	r24, 0xFA	; 250
    1ac2:	d8 07       	cpc	r29, r24
    1ac4:	98 f3       	brcs	.-26     	; 0x1aac <tombaCubo+0x42>
			if(!(PIND&(1<<6)))b = 65000;
			_delay_us(10);
		}
		if(b<65000){
    1ac6:	c8 3e       	cpi	r28, 0xE8	; 232
    1ac8:	9d ef       	ldi	r25, 0xFD	; 253
    1aca:	d9 07       	cpc	r29, r25
    1acc:	08 f0       	brcs	.+2      	; 0x1ad0 <tombaCubo+0x66>
    1ace:	4c c0       	rjmp	.+152    	; 0x1b68 <tombaCubo+0xfe>
			BUFFER_BYTE |= (1<<1);
			BUFFER_BYTE &=~(1<<0);
    1ad0:	80 91 e4 02 	lds	r24, 0x02E4
    1ad4:	8e 7f       	andi	r24, 0xFE	; 254
    1ad6:	82 60       	ori	r24, 0x02	; 2
    1ad8:	80 93 e4 02 	sts	0x02E4, r24
			sendFullSPI(BUFFER_BYTE);
    1adc:	0e 94 1a 09 	call	0x1234	; 0x1234 <sendFullSPI>
	#else
		//round up by default
		__ticks_dc = (uint32_t)(ceil(fabs(__tmp)));
	#endif

	__builtin_avr_delay_cycles(__ticks_dc);
    1ae0:	8f e2       	ldi	r24, 0x2F	; 47
    1ae2:	95 e7       	ldi	r25, 0x75	; 117
    1ae4:	01 97       	sbiw	r24, 0x01	; 1
    1ae6:	f1 f7       	brne	.-4      	; 0x1ae4 <tombaCubo+0x7a>
    1ae8:	00 c0       	rjmp	.+0      	; 0x1aea <tombaCubo+0x80>
    1aea:	00 00       	nop
			_delay_ms(15);
			BUFFER_BYTE &=~(1<<1);
    1aec:	80 91 e4 02 	lds	r24, 0x02E4
    1af0:	8d 7f       	andi	r24, 0xFD	; 253
    1af2:	80 93 e4 02 	sts	0x02E4, r24
			sendFullSPI(BUFFER_BYTE);
    1af6:	0e 94 1a 09 	call	0x1234	; 0x1234 <sendFullSPI>
			
			for(b=0;b<64000;b++){
    1afa:	c0 e0       	ldi	r28, 0x00	; 0
    1afc:	d0 e0       	ldi	r29, 0x00	; 0
				if(!(PIND&(1<<6)))b = 65000;
    1afe:	4e 99       	sbic	0x09, 6	; 9
    1b00:	02 c0       	rjmp	.+4      	; 0x1b06 <tombaCubo+0x9c>
    1b02:	c8 ee       	ldi	r28, 0xE8	; 232
    1b04:	dd ef       	ldi	r29, 0xFD	; 253
	#else
		//round up by default
		__ticks_dc = (uint32_t)(ceil(fabs(__tmp)));
	#endif

	__builtin_avr_delay_cycles(__ticks_dc);
    1b06:	9a e1       	ldi	r25, 0x1A	; 26
    1b08:	9a 95       	dec	r25
    1b0a:	f1 f7       	brne	.-4      	; 0x1b08 <tombaCubo+0x9e>
    1b0c:	00 c0       	rjmp	.+0      	; 0x1b0e <tombaCubo+0xa4>
			sendFullSPI(BUFFER_BYTE);
			_delay_ms(15);
			BUFFER_BYTE &=~(1<<1);
			sendFullSPI(BUFFER_BYTE);
			
			for(b=0;b<64000;b++){
    1b0e:	21 96       	adiw	r28, 0x01	; 1
    1b10:	c1 15       	cp	r28, r1
    1b12:	8a ef       	ldi	r24, 0xFA	; 250
    1b14:	d8 07       	cpc	r29, r24
    1b16:	98 f3       	brcs	.-26     	; 0x1afe <tombaCubo+0x94>
				if(!(PIND&(1<<6)))b = 65000;
				_delay_us(10);
			}
		}
		if(b<65000){
    1b18:	c8 3e       	cpi	r28, 0xE8	; 232
    1b1a:	9d ef       	ldi	r25, 0xFD	; 253
    1b1c:	d9 07       	cpc	r29, r25
    1b1e:	20 f5       	brcc	.+72     	; 0x1b68 <tombaCubo+0xfe>
			BUFFER_BYTE |= (1<<1);
			BUFFER_BYTE &=~(1<<0);
    1b20:	80 91 e4 02 	lds	r24, 0x02E4
    1b24:	8e 7f       	andi	r24, 0xFE	; 254
    1b26:	82 60       	ori	r24, 0x02	; 2
    1b28:	80 93 e4 02 	sts	0x02E4, r24
			sendFullSPI(BUFFER_BYTE);
    1b2c:	0e 94 1a 09 	call	0x1234	; 0x1234 <sendFullSPI>
	#else
		//round up by default
		__ticks_dc = (uint32_t)(ceil(fabs(__tmp)));
	#endif

	__builtin_avr_delay_cycles(__ticks_dc);
    1b30:	8f e2       	ldi	r24, 0x2F	; 47
    1b32:	95 e7       	ldi	r25, 0x75	; 117
    1b34:	01 97       	sbiw	r24, 0x01	; 1
    1b36:	f1 f7       	brne	.-4      	; 0x1b34 <tombaCubo+0xca>
    1b38:	00 c0       	rjmp	.+0      	; 0x1b3a <tombaCubo+0xd0>
    1b3a:	00 00       	nop
			_delay_ms(15);
			BUFFER_BYTE &=~(1<<1);
    1b3c:	80 91 e4 02 	lds	r24, 0x02E4
    1b40:	8d 7f       	andi	r24, 0xFD	; 253
    1b42:	80 93 e4 02 	sts	0x02E4, r24
			sendFullSPI(BUFFER_BYTE);
    1b46:	0e 94 1a 09 	call	0x1234	; 0x1234 <sendFullSPI>
			
			for(b=0;b<64000;b++){
    1b4a:	c0 e0       	ldi	r28, 0x00	; 0
    1b4c:	d0 e0       	ldi	r29, 0x00	; 0
				if(!(PIND&(1<<6)))b = 65000;
    1b4e:	4e 99       	sbic	0x09, 6	; 9
    1b50:	02 c0       	rjmp	.+4      	; 0x1b56 <tombaCubo+0xec>
    1b52:	c8 ee       	ldi	r28, 0xE8	; 232
    1b54:	dd ef       	ldi	r29, 0xFD	; 253
	#else
		//round up by default
		__ticks_dc = (uint32_t)(ceil(fabs(__tmp)));
	#endif

	__builtin_avr_delay_cycles(__ticks_dc);
    1b56:	9a e1       	ldi	r25, 0x1A	; 26
    1b58:	9a 95       	dec	r25
    1b5a:	f1 f7       	brne	.-4      	; 0x1b58 <tombaCubo+0xee>
    1b5c:	00 c0       	rjmp	.+0      	; 0x1b5e <tombaCubo+0xf4>
			sendFullSPI(BUFFER_BYTE);
			_delay_ms(15);
			BUFFER_BYTE &=~(1<<1);
			sendFullSPI(BUFFER_BYTE);
			
			for(b=0;b<64000;b++){
    1b5e:	21 96       	adiw	r28, 0x01	; 1
    1b60:	c1 15       	cp	r28, r1
    1b62:	8a ef       	ldi	r24, 0xFA	; 250
    1b64:	d8 07       	cpc	r29, r24
    1b66:	98 f3       	brcs	.-26     	; 0x1b4e <tombaCubo+0xe4>
				if(!(PIND&(1<<6)))b = 65000;
				_delay_us(10);
			}
		}
		translateTo(310);
    1b68:	86 e3       	ldi	r24, 0x36	; 54
    1b6a:	91 e0       	ldi	r25, 0x01	; 1
    1b6c:	0e 94 c7 0a 	call	0x158e	; 0x158e <translateTo>
		translateTo(275);
    1b70:	83 e1       	ldi	r24, 0x13	; 19
    1b72:	91 e0       	ldi	r25, 0x01	; 1
    1b74:	0e 94 c7 0a 	call	0x158e	; 0x158e <translateTo>
		if(b>=65000){
    1b78:	c8 3e       	cpi	r28, 0xE8	; 232
    1b7a:	dd 4f       	sbci	r29, 0xFD	; 253
    1b7c:	18 f4       	brcc	.+6      	; 0x1b84 <tombaCubo+0x11a>
			a = 6;
		}else{
			treme();
    1b7e:	0e 94 f6 0a 	call	0x15ec	; 0x15ec <treme>
    1b82:	02 c0       	rjmp	.+4      	; 0x1b88 <tombaCubo+0x11e>
			}
		}
		translateTo(310);
		translateTo(275);
		if(b>=65000){
			a = 6;
    1b84:	06 e0       	ldi	r16, 0x06	; 6
    1b86:	10 e0       	ldi	r17, 0x00	; 0
	soltaROT();
	return 1;
}
char tombaCubo(){
	uint16_t a, b;
	for(a=0;a<4;a++){
    1b88:	0f 5f       	subi	r16, 0xFF	; 255
    1b8a:	1f 4f       	sbci	r17, 0xFF	; 255
    1b8c:	04 30       	cpi	r16, 0x04	; 4
    1b8e:	11 05       	cpc	r17, r1
    1b90:	08 f4       	brcc	.+2      	; 0x1b94 <tombaCubo+0x12a>
    1b92:	71 cf       	rjmp	.-286    	; 0x1a76 <tombaCubo+0xc>
			a = 6;
		}else{
			treme();
		}
	}
	if(a==4)return 0;
    1b94:	81 e0       	ldi	r24, 0x01	; 1
    1b96:	04 30       	cpi	r16, 0x04	; 4
    1b98:	11 05       	cpc	r17, r1
    1b9a:	09 f4       	brne	.+2      	; 0x1b9e <tombaCubo+0x134>
    1b9c:	80 e0       	ldi	r24, 0x00	; 0
	return 1;
}
    1b9e:	df 91       	pop	r29
    1ba0:	cf 91       	pop	r28
    1ba2:	1f 91       	pop	r17
    1ba4:	0f 91       	pop	r16
    1ba6:	08 95       	ret

00001ba8 <resetFaces>:
#define DW 5

//Idia: guardar as faces todo o tempo e quando executar um movimento, trocar as faces de lugar
//Face[a] = b -> face B est na posicao A
void resetFaces(){
	for(int a=0;a<6;a++)FACES[a] = a;
    1ba8:	ee ed       	ldi	r30, 0xDE	; 222
    1baa:	f2 e0       	ldi	r31, 0x02	; 2
    1bac:	10 82       	st	Z, r1
    1bae:	81 e0       	ldi	r24, 0x01	; 1
    1bb0:	81 83       	std	Z+1, r24	; 0x01
    1bb2:	82 e0       	ldi	r24, 0x02	; 2
    1bb4:	82 83       	std	Z+2, r24	; 0x02
    1bb6:	83 e0       	ldi	r24, 0x03	; 3
    1bb8:	83 83       	std	Z+3, r24	; 0x03
    1bba:	84 e0       	ldi	r24, 0x04	; 4
    1bbc:	84 83       	std	Z+4, r24	; 0x04
    1bbe:	85 e0       	ldi	r24, 0x05	; 5
    1bc0:	85 83       	std	Z+5, r24	; 0x05
    1bc2:	08 95       	ret

00001bc4 <executarMovimento>:
#define RI_CC 7
#define BK_CW 8
#define BK_CC 9
#define DW_CW 10
#define DW_CC 11
char executarMovimento(uint8_t m){//UCW UCCW LCW LCCW FCW FCCW RCW RCCW BCW BCCW DCW DCCW
    1bc4:	cf 93       	push	r28
    1bc6:	c8 2f       	mov	r28, r24
	uint8_t face = m>>1, a, pos = 0;
    1bc8:	86 95       	lsr	r24
    1bca:	ee ed       	ldi	r30, 0xDE	; 222
    1bcc:	f2 e0       	ldi	r31, 0x02	; 2
    1bce:	90 e0       	ldi	r25, 0x00	; 0
	for(a=0;a<6;a++)if(face==FACES[a])pos=a;
    1bd0:	20 e0       	ldi	r18, 0x00	; 0
    1bd2:	31 91       	ld	r19, Z+
    1bd4:	83 13       	cpse	r24, r19
    1bd6:	01 c0       	rjmp	.+2      	; 0x1bda <executarMovimento+0x16>
    1bd8:	92 2f       	mov	r25, r18
    1bda:	2f 5f       	subi	r18, 0xFF	; 255
    1bdc:	26 30       	cpi	r18, 0x06	; 6
    1bde:	c9 f7       	brne	.-14     	; 0x1bd2 <executarMovimento+0xe>
	//}
	//printInt(pos);
	//putch('=');
	//printInt(face);
	//putch('\n');
	switch(pos){
    1be0:	92 30       	cpi	r25, 0x02	; 2
    1be2:	09 f4       	brne	.+2      	; 0x1be6 <executarMovimento+0x22>
    1be4:	4b c0       	rjmp	.+150    	; 0x1c7c <executarMovimento+0xb8>
    1be6:	10 f5       	brcc	.+68     	; 0x1c2c <executarMovimento+0x68>
    1be8:	99 23       	and	r25, r25
    1bea:	b9 f1       	breq	.+110    	; 0x1c5a <executarMovimento+0x96>
    1bec:	91 30       	cpi	r25, 0x01	; 1
    1bee:	09 f0       	breq	.+2      	; 0x1bf2 <executarMovimento+0x2e>
    1bf0:	87 c0       	rjmp	.+270    	; 0x1d00 <executarMovimento+0x13c>
		if(!tombaCubo())return 0;
		break;
		case LF://Left--> CW, tomba
		//UP LF FR RI BK DW
		//BK DW LF UP RI FR
		a = FACES[UP];
    1bf2:	80 91 de 02 	lds	r24, 0x02DE
		FACES[UP] = FACES[RI];
    1bf6:	90 91 e1 02 	lds	r25, 0x02E1
    1bfa:	90 93 de 02 	sts	0x02DE, r25
		FACES[RI] = FACES[BK];
    1bfe:	90 91 e2 02 	lds	r25, 0x02E2
    1c02:	90 93 e1 02 	sts	0x02E1, r25
		FACES[BK] = a;
    1c06:	80 93 e2 02 	sts	0x02E2, r24
		a = FACES[LF];
    1c0a:	80 91 df 02 	lds	r24, 0x02DF
		FACES[LF] = FACES[FR];
    1c0e:	90 91 e0 02 	lds	r25, 0x02E0
    1c12:	90 93 df 02 	sts	0x02DF, r25
		FACES[FR] = FACES[DW];
    1c16:	90 91 e3 02 	lds	r25, 0x02E3
    1c1a:	90 93 e0 02 	sts	0x02E0, r25
		FACES[DW] = a;
    1c1e:	80 93 e3 02 	sts	0x02E3, r24
		treme();
    1c22:	0e 94 f6 0a 	call	0x15ec	; 0x15ec <treme>
		if(!girarCubo(90))return 0;
    1c26:	8a e5       	ldi	r24, 0x5A	; 90
    1c28:	90 e0       	ldi	r25, 0x00	; 0
    1c2a:	61 c0       	rjmp	.+194    	; 0x1cee <executarMovimento+0x12a>
	//}
	//printInt(pos);
	//putch('=');
	//printInt(face);
	//putch('\n');
	switch(pos){
    1c2c:	93 30       	cpi	r25, 0x03	; 3
    1c2e:	09 f4       	brne	.+2      	; 0x1c32 <executarMovimento+0x6e>
    1c30:	42 c0       	rjmp	.+132    	; 0x1cb6 <executarMovimento+0xf2>
    1c32:	94 30       	cpi	r25, 0x04	; 4
    1c34:	09 f0       	breq	.+2      	; 0x1c38 <executarMovimento+0x74>
    1c36:	64 c0       	rjmp	.+200    	; 0x1d00 <executarMovimento+0x13c>
		if(!tombaCubo())return 0;
		break;
		case BK: //Back--> tomba
		//UP LF FR RI BK DW
		//BK LF UP RI DW FR
		a = FACES[UP];
    1c38:	80 91 de 02 	lds	r24, 0x02DE
		FACES[UP] = FACES[FR];
    1c3c:	90 91 e0 02 	lds	r25, 0x02E0
    1c40:	90 93 de 02 	sts	0x02DE, r25
		FACES[FR] = FACES[DW];
    1c44:	90 91 e3 02 	lds	r25, 0x02E3
    1c48:	90 93 e0 02 	sts	0x02E0, r25
		FACES[DW] = FACES[BK];
    1c4c:	90 91 e2 02 	lds	r25, 0x02E2
    1c50:	90 93 e3 02 	sts	0x02E3, r25
		FACES[BK] = a;
    1c54:	80 93 e2 02 	sts	0x02E2, r24
    1c58:	4d c0       	rjmp	.+154    	; 0x1cf4 <executarMovimento+0x130>
	//putch('\n');
	switch(pos){
		case UP://Up -> tomba, tomba
		//UP LF FR RI BK DW
		//DW LF BK RI FR UP
		a = FACES[DW];
    1c5a:	80 91 e3 02 	lds	r24, 0x02E3
		FACES[DW] = FACES[UP];
    1c5e:	90 91 de 02 	lds	r25, 0x02DE
    1c62:	90 93 e3 02 	sts	0x02E3, r25
		FACES[UP] = a;
    1c66:	80 93 de 02 	sts	0x02DE, r24
		a = FACES[BK];
    1c6a:	80 91 e2 02 	lds	r24, 0x02E2
		FACES[BK] = FACES[FR];
    1c6e:	90 91 e0 02 	lds	r25, 0x02E0
    1c72:	90 93 e2 02 	sts	0x02E2, r25
		FACES[FR] = a;
    1c76:	80 93 e0 02 	sts	0x02E0, r24
    1c7a:	16 c0       	rjmp	.+44     	; 0x1ca8 <executarMovimento+0xe4>
		FACES[FR] = FACES[DW];
		FACES[DW] = a;*/
		//Usando tomba, tomba, tomba pra nao sobrecarregar levantador
		//UP LF FR RI BK DW
		//FR LF DW RI UP BK
		a = FACES[FR];
    1c7c:	80 91 e0 02 	lds	r24, 0x02E0
		FACES[FR] = FACES[UP];
    1c80:	90 91 de 02 	lds	r25, 0x02DE
    1c84:	90 93 e0 02 	sts	0x02E0, r25
		FACES[UP] = FACES[BK];
    1c88:	90 91 e2 02 	lds	r25, 0x02E2
    1c8c:	90 93 de 02 	sts	0x02DE, r25
		FACES[BK] = FACES[DW];
    1c90:	90 91 e3 02 	lds	r25, 0x02E3
    1c94:	90 93 e2 02 	sts	0x02E2, r25
		FACES[DW] = a;
    1c98:	80 93 e3 02 	sts	0x02E3, r24
		treme();
    1c9c:	0e 94 f6 0a 	call	0x15ec	; 0x15ec <treme>
		if(!tombaCubo())return 0;
    1ca0:	0e 94 35 0d 	call	0x1a6a	; 0x1a6a <tombaCubo>
    1ca4:	88 23       	and	r24, r24
    1ca6:	d1 f1       	breq	.+116    	; 0x1d1c <executarMovimento+0x158>
		treme();
    1ca8:	0e 94 f6 0a 	call	0x15ec	; 0x15ec <treme>
		if(!tombaCubo())return 0;
    1cac:	0e 94 35 0d 	call	0x1a6a	; 0x1a6a <tombaCubo>
    1cb0:	88 23       	and	r24, r24
    1cb2:	a1 f1       	breq	.+104    	; 0x1d1c <executarMovimento+0x158>
    1cb4:	1f c0       	rjmp	.+62     	; 0x1cf4 <executarMovimento+0x130>
		if(!tombaCubo())return 0;
		break;
		case RI: //Right--> CCW, tomba
		//UP LF FR RI BK DW
		//BK UP RI DW LF FR
		a = FACES[UP];
    1cb6:	80 91 de 02 	lds	r24, 0x02DE
		FACES[UP] = FACES[LF];
    1cba:	90 91 df 02 	lds	r25, 0x02DF
    1cbe:	90 93 de 02 	sts	0x02DE, r25
		FACES[LF] = FACES[BK];
    1cc2:	90 91 e2 02 	lds	r25, 0x02E2
    1cc6:	90 93 df 02 	sts	0x02DF, r25
		FACES[BK] = a;
    1cca:	80 93 e2 02 	sts	0x02E2, r24
		a = FACES[FR];
    1cce:	80 91 e0 02 	lds	r24, 0x02E0
		FACES[FR] = FACES[DW];
    1cd2:	90 91 e3 02 	lds	r25, 0x02E3
    1cd6:	90 93 e0 02 	sts	0x02E0, r25
		FACES[DW] = FACES[RI];
    1cda:	90 91 e1 02 	lds	r25, 0x02E1
    1cde:	90 93 e3 02 	sts	0x02E3, r25
		FACES[RI] = a;
    1ce2:	80 93 e1 02 	sts	0x02E1, r24
		treme();
    1ce6:	0e 94 f6 0a 	call	0x15ec	; 0x15ec <treme>
		if(!girarCubo(-90))return 0;
    1cea:	86 ea       	ldi	r24, 0xA6	; 166
    1cec:	9f ef       	ldi	r25, 0xFF	; 255
    1cee:	0e 94 35 0c 	call	0x186a	; 0x186a <girarCubo>
    1cf2:	de cf       	rjmp	.-68     	; 0x1cb0 <executarMovimento+0xec>
		a = FACES[UP];
		FACES[UP] = FACES[FR];
		FACES[FR] = FACES[DW];
		FACES[DW] = FACES[BK];
		FACES[BK] = a;
		treme();
    1cf4:	0e 94 f6 0a 	call	0x15ec	; 0x15ec <treme>
		if(!tombaCubo())return 0;
    1cf8:	0e 94 35 0d 	call	0x1a6a	; 0x1a6a <tombaCubo>
    1cfc:	88 23       	and	r24, r24
    1cfe:	71 f0       	breq	.+28     	; 0x1d1c <executarMovimento+0x158>
		break;
		case DW: //J t na posicao certa
		break;
	}
	treme();
    1d00:	0e 94 f6 0a 	call	0x15ec	; 0x15ec <treme>
	if(m&1){
    1d04:	c0 ff       	sbrs	r28, 0
    1d06:	03 c0       	rjmp	.+6      	; 0x1d0e <executarMovimento+0x14a>
		if(!torceCubo(90))return 0;
    1d08:	8a e5       	ldi	r24, 0x5A	; 90
    1d0a:	90 e0       	ldi	r25, 0x00	; 0
    1d0c:	02 c0       	rjmp	.+4      	; 0x1d12 <executarMovimento+0x14e>
	}else{
		if(!torceCubo(-90))return 0;
    1d0e:	86 ea       	ldi	r24, 0xA6	; 166
    1d10:	9f ef       	ldi	r25, 0xFF	; 255
    1d12:	0e 94 9f 0c 	call	0x193e	; 0x193e <torceCubo>
    1d16:	91 e0       	ldi	r25, 0x01	; 1
    1d18:	81 11       	cpse	r24, r1
    1d1a:	01 c0       	rjmp	.+2      	; 0x1d1e <executarMovimento+0x15a>
    1d1c:	90 e0       	ldi	r25, 0x00	; 0
	}
	return 1;
}
    1d1e:	89 2f       	mov	r24, r25
    1d20:	cf 91       	pop	r28
    1d22:	08 95       	ret

00001d24 <leituraInicial>:
void leituraInicial(uint16_t *cores){//[54]
    1d24:	ef 92       	push	r14
    1d26:	ff 92       	push	r15
    1d28:	0f 93       	push	r16
    1d2a:	1f 93       	push	r17
    1d2c:	cf 93       	push	r28
    1d2e:	df 93       	push	r29
    1d30:	ec 01       	movw	r28, r24
	//gira ccw, tomba, gira cw******APENAS PARA VERIFICAR CAMINHO!!
	girarCubo(-90);
    1d32:	86 ea       	ldi	r24, 0xA6	; 166
    1d34:	9f ef       	ldi	r25, 0xFF	; 255
    1d36:	0e 94 35 0c 	call	0x186a	; 0x186a <girarCubo>
	tombaCubo();
    1d3a:	0e 94 35 0d 	call	0x1a6a	; 0x1a6a <tombaCubo>
	girarCubo(90);
    1d3e:	8a e5       	ldi	r24, 0x5A	; 90
    1d40:	90 e0       	ldi	r25, 0x00	; 0
    1d42:	0e 94 35 0c 	call	0x186a	; 0x186a <girarCubo>
	//Leitura Left ---------------------------------------------------------------------
	//putStr("LEFT\n");
	levantaBraco();
    1d46:	0e 94 56 09 	call	0x12ac	; 0x12ac <levantaBraco>
	translateTo(160);
    1d4a:	80 ea       	ldi	r24, 0xA0	; 160
    1d4c:	90 e0       	ldi	r25, 0x00	; 0
    1d4e:	0e 94 c7 0a 	call	0x158e	; 0x158e <translateTo>
	soltaBraco();
    1d52:	0e 94 7a 09 	call	0x12f4	; 0x12f4 <soltaBraco>
	fazerLeituraCorBruto();
    1d56:	0e 94 c7 0b 	call	0x178e	; 0x178e <fazerLeituraCorBruto>
	cores[10*4+0] = ULTIMA_LEITURA[0][0];
    1d5a:	fe 01       	movw	r30, r28
    1d5c:	e0 5b       	subi	r30, 0xB0	; 176
    1d5e:	ff 4f       	sbci	r31, 0xFF	; 255
    1d60:	80 91 f9 01 	lds	r24, 0x01F9
    1d64:	90 91 fa 01 	lds	r25, 0x01FA
    1d68:	91 83       	std	Z+1, r25	; 0x01
    1d6a:	80 83       	st	Z, r24
	cores[10*4+1] = ULTIMA_LEITURA[0][1];
    1d6c:	32 96       	adiw	r30, 0x02	; 2
    1d6e:	80 91 fb 01 	lds	r24, 0x01FB
    1d72:	90 91 fc 01 	lds	r25, 0x01FC
    1d76:	91 83       	std	Z+1, r25	; 0x01
    1d78:	80 83       	st	Z, r24
	cores[10*4+2] = ULTIMA_LEITURA[0][2];
    1d7a:	32 96       	adiw	r30, 0x02	; 2
    1d7c:	80 91 fd 01 	lds	r24, 0x01FD
    1d80:	90 91 fe 01 	lds	r25, 0x01FE
    1d84:	91 83       	std	Z+1, r25	; 0x01
    1d86:	80 83       	st	Z, r24
	cores[10*4+3] = 0;
    1d88:	32 96       	adiw	r30, 0x02	; 2
    1d8a:	11 82       	std	Z+1, r1	; 0x01
    1d8c:	10 82       	st	Z, r1
	cores[11*4+0] = ULTIMA_LEITURA[1][0];
    1d8e:	32 96       	adiw	r30, 0x02	; 2
    1d90:	80 91 01 02 	lds	r24, 0x0201
    1d94:	90 91 02 02 	lds	r25, 0x0202
    1d98:	91 83       	std	Z+1, r25	; 0x01
    1d9a:	80 83       	st	Z, r24
	cores[11*4+1] = ULTIMA_LEITURA[1][1];
    1d9c:	32 96       	adiw	r30, 0x02	; 2
    1d9e:	80 91 03 02 	lds	r24, 0x0203
    1da2:	90 91 04 02 	lds	r25, 0x0204
    1da6:	91 83       	std	Z+1, r25	; 0x01
    1da8:	80 83       	st	Z, r24
	cores[11*4+2] = ULTIMA_LEITURA[1][2];
    1daa:	32 96       	adiw	r30, 0x02	; 2
    1dac:	80 91 05 02 	lds	r24, 0x0205
    1db0:	90 91 06 02 	lds	r25, 0x0206
    1db4:	91 83       	std	Z+1, r25	; 0x01
    1db6:	80 83       	st	Z, r24
	cores[11*4+3] = 1;
    1db8:	32 96       	adiw	r30, 0x02	; 2
    1dba:	ee 24       	eor	r14, r14
    1dbc:	e3 94       	inc	r14
    1dbe:	f1 2c       	mov	r15, r1
    1dc0:	f1 82       	std	Z+1, r15	; 0x01
    1dc2:	e0 82       	st	Z, r14
	cores[12*4+0] = ULTIMA_LEITURA[2][0];
    1dc4:	32 96       	adiw	r30, 0x02	; 2
    1dc6:	80 91 09 02 	lds	r24, 0x0209
    1dca:	90 91 0a 02 	lds	r25, 0x020A
    1dce:	91 83       	std	Z+1, r25	; 0x01
    1dd0:	80 83       	st	Z, r24
	cores[12*4+1] = ULTIMA_LEITURA[2][1];
    1dd2:	32 96       	adiw	r30, 0x02	; 2
    1dd4:	80 91 0b 02 	lds	r24, 0x020B
    1dd8:	90 91 0c 02 	lds	r25, 0x020C
    1ddc:	91 83       	std	Z+1, r25	; 0x01
    1dde:	80 83       	st	Z, r24
	cores[12*4+2] = ULTIMA_LEITURA[2][2];
    1de0:	32 96       	adiw	r30, 0x02	; 2
    1de2:	80 91 0d 02 	lds	r24, 0x020D
    1de6:	90 91 0e 02 	lds	r25, 0x020E
    1dea:	91 83       	std	Z+1, r25	; 0x01
    1dec:	80 83       	st	Z, r24
	cores[12*4+3] = 2;
    1dee:	32 96       	adiw	r30, 0x02	; 2
    1df0:	02 e0       	ldi	r16, 0x02	; 2
    1df2:	10 e0       	ldi	r17, 0x00	; 0
    1df4:	11 83       	std	Z+1, r17	; 0x01
    1df6:	00 83       	st	Z, r16
	translateTo(70);
    1df8:	86 e4       	ldi	r24, 0x46	; 70
    1dfa:	90 e0       	ldi	r25, 0x00	; 0
    1dfc:	0e 94 c7 0a 	call	0x158e	; 0x158e <translateTo>
	fazerLeituraCorBruto();
    1e00:	0e 94 c7 0b 	call	0x178e	; 0x178e <fazerLeituraCorBruto>
	cores[9*4+0] = ULTIMA_LEITURA[0][0];
    1e04:	fe 01       	movw	r30, r28
    1e06:	e8 5b       	subi	r30, 0xB8	; 184
    1e08:	ff 4f       	sbci	r31, 0xFF	; 255
    1e0a:	80 91 f9 01 	lds	r24, 0x01F9
    1e0e:	90 91 fa 01 	lds	r25, 0x01FA
    1e12:	91 83       	std	Z+1, r25	; 0x01
    1e14:	80 83       	st	Z, r24
	cores[9*4+1] = ULTIMA_LEITURA[0][1];
    1e16:	32 96       	adiw	r30, 0x02	; 2
    1e18:	80 91 fb 01 	lds	r24, 0x01FB
    1e1c:	90 91 fc 01 	lds	r25, 0x01FC
    1e20:	91 83       	std	Z+1, r25	; 0x01
    1e22:	80 83       	st	Z, r24
	cores[9*4+2] = ULTIMA_LEITURA[0][2];
    1e24:	32 96       	adiw	r30, 0x02	; 2
    1e26:	80 91 fd 01 	lds	r24, 0x01FD
    1e2a:	90 91 fe 01 	lds	r25, 0x01FE
    1e2e:	91 83       	std	Z+1, r25	; 0x01
    1e30:	80 83       	st	Z, r24
	cores[9*4+3] = 0;
    1e32:	32 96       	adiw	r30, 0x02	; 2
    1e34:	11 82       	std	Z+1, r1	; 0x01
    1e36:	10 82       	st	Z, r1
	cores[49*4+0] = ULTIMA_LEITURA[1][0];
    1e38:	e6 5c       	subi	r30, 0xC6	; 198
    1e3a:	fe 4f       	sbci	r31, 0xFE	; 254
    1e3c:	80 91 01 02 	lds	r24, 0x0201
    1e40:	90 91 02 02 	lds	r25, 0x0202
    1e44:	91 83       	std	Z+1, r25	; 0x01
    1e46:	80 83       	st	Z, r24
	cores[49*4+1] = ULTIMA_LEITURA[1][1];
    1e48:	32 96       	adiw	r30, 0x02	; 2
    1e4a:	80 91 03 02 	lds	r24, 0x0203
    1e4e:	90 91 04 02 	lds	r25, 0x0204
    1e52:	91 83       	std	Z+1, r25	; 0x01
    1e54:	80 83       	st	Z, r24
	cores[49*4+2] = ULTIMA_LEITURA[1][2];
    1e56:	32 96       	adiw	r30, 0x02	; 2
    1e58:	80 91 05 02 	lds	r24, 0x0205
    1e5c:	90 91 06 02 	lds	r25, 0x0206
    1e60:	91 83       	std	Z+1, r25	; 0x01
    1e62:	80 83       	st	Z, r24
	cores[49*4+3] = 1;
    1e64:	32 96       	adiw	r30, 0x02	; 2
    1e66:	f1 82       	std	Z+1, r15	; 0x01
    1e68:	e0 82       	st	Z, r14
	cores[13*4+0] = ULTIMA_LEITURA[2][0];
    1e6a:	e6 52       	subi	r30, 0x26	; 38
    1e6c:	f1 40       	sbci	r31, 0x01	; 1
    1e6e:	80 91 09 02 	lds	r24, 0x0209
    1e72:	90 91 0a 02 	lds	r25, 0x020A
    1e76:	91 83       	std	Z+1, r25	; 0x01
    1e78:	80 83       	st	Z, r24
	cores[13*4+1] = ULTIMA_LEITURA[2][1];
    1e7a:	32 96       	adiw	r30, 0x02	; 2
    1e7c:	80 91 0b 02 	lds	r24, 0x020B
    1e80:	90 91 0c 02 	lds	r25, 0x020C
    1e84:	91 83       	std	Z+1, r25	; 0x01
    1e86:	80 83       	st	Z, r24
	cores[13*4+2] = ULTIMA_LEITURA[2][2];
    1e88:	32 96       	adiw	r30, 0x02	; 2
    1e8a:	80 91 0d 02 	lds	r24, 0x020D
    1e8e:	90 91 0e 02 	lds	r25, 0x020E
    1e92:	91 83       	std	Z+1, r25	; 0x01
    1e94:	80 83       	st	Z, r24
	cores[13*4+3] = 2;
    1e96:	32 96       	adiw	r30, 0x02	; 2
    1e98:	11 83       	std	Z+1, r17	; 0x01
    1e9a:	00 83       	st	Z, r16
    1e9c:	00 ef       	ldi	r16, 0xF0	; 240
    1e9e:	10 e0       	ldi	r17, 0x00	; 0
	for(int a=0;a<240;a++)passoROTHOR();
    1ea0:	0e 94 a1 09 	call	0x1342	; 0x1342 <passoROTHOR>
    1ea4:	01 50       	subi	r16, 0x01	; 1
    1ea6:	11 09       	sbc	r17, r1
    1ea8:	d9 f7       	brne	.-10     	; 0x1ea0 <leituraInicial+0x17c>
	soltaROT();
    1eaa:	0e 94 9c 09 	call	0x1338	; 0x1338 <soltaROT>
	translateTo(160);
    1eae:	80 ea       	ldi	r24, 0xA0	; 160
    1eb0:	90 e0       	ldi	r25, 0x00	; 0
    1eb2:	0e 94 c7 0a 	call	0x158e	; 0x158e <translateTo>
	fazerLeituraCorBruto();
    1eb6:	0e 94 c7 0b 	call	0x178e	; 0x178e <fazerLeituraCorBruto>
	cores[14*4+0] = ULTIMA_LEITURA[0][0];
    1eba:	80 91 f9 01 	lds	r24, 0x01F9
    1ebe:	90 91 fa 01 	lds	r25, 0x01FA
    1ec2:	fe 01       	movw	r30, r28
    1ec4:	e0 59       	subi	r30, 0x90	; 144
    1ec6:	ff 4f       	sbci	r31, 0xFF	; 255
    1ec8:	91 83       	std	Z+1, r25	; 0x01
    1eca:	80 83       	st	Z, r24
	cores[14*4+1] = ULTIMA_LEITURA[0][1];
    1ecc:	80 91 fb 01 	lds	r24, 0x01FB
    1ed0:	90 91 fc 01 	lds	r25, 0x01FC
    1ed4:	32 96       	adiw	r30, 0x02	; 2
    1ed6:	91 83       	std	Z+1, r25	; 0x01
    1ed8:	80 83       	st	Z, r24
	cores[14*4+2] = ULTIMA_LEITURA[0][2];
    1eda:	80 91 fd 01 	lds	r24, 0x01FD
    1ede:	90 91 fe 01 	lds	r25, 0x01FE
    1ee2:	32 96       	adiw	r30, 0x02	; 2
    1ee4:	91 83       	std	Z+1, r25	; 0x01
    1ee6:	80 83       	st	Z, r24
	cores[14*4+3] = 0;
    1ee8:	32 96       	adiw	r30, 0x02	; 2
    1eea:	11 82       	std	Z+1, r1	; 0x01
    1eec:	10 82       	st	Z, r1
	cores[15*4+0] = ULTIMA_LEITURA[1][0];
    1eee:	80 91 01 02 	lds	r24, 0x0201
    1ef2:	90 91 02 02 	lds	r25, 0x0202
    1ef6:	32 96       	adiw	r30, 0x02	; 2
    1ef8:	91 83       	std	Z+1, r25	; 0x01
    1efa:	80 83       	st	Z, r24
	cores[15*4+1] = ULTIMA_LEITURA[1][1];
    1efc:	80 91 03 02 	lds	r24, 0x0203
    1f00:	90 91 04 02 	lds	r25, 0x0204
    1f04:	32 96       	adiw	r30, 0x02	; 2
    1f06:	91 83       	std	Z+1, r25	; 0x01
    1f08:	80 83       	st	Z, r24
	cores[15*4+2] = ULTIMA_LEITURA[1][2];
    1f0a:	80 91 05 02 	lds	r24, 0x0205
    1f0e:	90 91 06 02 	lds	r25, 0x0206
    1f12:	32 96       	adiw	r30, 0x02	; 2
    1f14:	91 83       	std	Z+1, r25	; 0x01
    1f16:	80 83       	st	Z, r24
	cores[15*4+3] = 1;
    1f18:	ee 24       	eor	r14, r14
    1f1a:	e3 94       	inc	r14
    1f1c:	f1 2c       	mov	r15, r1
    1f1e:	32 96       	adiw	r30, 0x02	; 2
    1f20:	f1 82       	std	Z+1, r15	; 0x01
    1f22:	e0 82       	st	Z, r14
	cores[8*4+0] = ULTIMA_LEITURA[2][0];
    1f24:	80 91 09 02 	lds	r24, 0x0209
    1f28:	90 91 0a 02 	lds	r25, 0x020A
    1f2c:	fe 97       	sbiw	r30, 0x3e	; 62
    1f2e:	91 83       	std	Z+1, r25	; 0x01
    1f30:	80 83       	st	Z, r24
	cores[8*4+1] = ULTIMA_LEITURA[2][1];
    1f32:	80 91 0b 02 	lds	r24, 0x020B
    1f36:	90 91 0c 02 	lds	r25, 0x020C
    1f3a:	32 96       	adiw	r30, 0x02	; 2
    1f3c:	91 83       	std	Z+1, r25	; 0x01
    1f3e:	80 83       	st	Z, r24
	cores[8*4+2] = ULTIMA_LEITURA[2][2];
    1f40:	80 91 0d 02 	lds	r24, 0x020D
    1f44:	90 91 0e 02 	lds	r25, 0x020E
    1f48:	32 96       	adiw	r30, 0x02	; 2
    1f4a:	91 83       	std	Z+1, r25	; 0x01
    1f4c:	80 83       	st	Z, r24
	cores[8*4+3] = 2;
    1f4e:	02 e0       	ldi	r16, 0x02	; 2
    1f50:	10 e0       	ldi	r17, 0x00	; 0
    1f52:	32 96       	adiw	r30, 0x02	; 2
    1f54:	11 83       	std	Z+1, r17	; 0x01
    1f56:	00 83       	st	Z, r16
	translateTo(310);
    1f58:	86 e3       	ldi	r24, 0x36	; 54
    1f5a:	91 e0       	ldi	r25, 0x01	; 1
    1f5c:	0e 94 c7 0a 	call	0x158e	; 0x158e <translateTo>
	//Leitura Right----------------------------------------------------------------
	//putStr("RIGHT\n");
	tombaCubo();
    1f60:	0e 94 35 0d 	call	0x1a6a	; 0x1a6a <tombaCubo>
	tombaCubo();
    1f64:	0e 94 35 0d 	call	0x1a6a	; 0x1a6a <tombaCubo>
	levantaBraco();
    1f68:	0e 94 56 09 	call	0x12ac	; 0x12ac <levantaBraco>
	translateTo(160);
    1f6c:	80 ea       	ldi	r24, 0xA0	; 160
    1f6e:	90 e0       	ldi	r25, 0x00	; 0
    1f70:	0e 94 c7 0a 	call	0x158e	; 0x158e <translateTo>
	soltaBraco();
    1f74:	0e 94 7a 09 	call	0x12f4	; 0x12f4 <soltaBraco>
	fazerLeituraCorBruto();
    1f78:	0e 94 c7 0b 	call	0x178e	; 0x178e <fazerLeituraCorBruto>
	cores[30*4+0] = ULTIMA_LEITURA[0][0];
    1f7c:	80 91 f9 01 	lds	r24, 0x01F9
    1f80:	90 91 fa 01 	lds	r25, 0x01FA
    1f84:	fe 01       	movw	r30, r28
    1f86:	e0 51       	subi	r30, 0x10	; 16
    1f88:	ff 4f       	sbci	r31, 0xFF	; 255
    1f8a:	91 83       	std	Z+1, r25	; 0x01
    1f8c:	80 83       	st	Z, r24
	cores[30*4+1] = ULTIMA_LEITURA[0][1];
    1f8e:	80 91 fb 01 	lds	r24, 0x01FB
    1f92:	90 91 fc 01 	lds	r25, 0x01FC
    1f96:	32 96       	adiw	r30, 0x02	; 2
    1f98:	91 83       	std	Z+1, r25	; 0x01
    1f9a:	80 83       	st	Z, r24
	cores[30*4+2] = ULTIMA_LEITURA[0][2];
    1f9c:	80 91 fd 01 	lds	r24, 0x01FD
    1fa0:	90 91 fe 01 	lds	r25, 0x01FE
    1fa4:	32 96       	adiw	r30, 0x02	; 2
    1fa6:	91 83       	std	Z+1, r25	; 0x01
    1fa8:	80 83       	st	Z, r24
	cores[30*4+3] = 0;
    1faa:	32 96       	adiw	r30, 0x02	; 2
    1fac:	11 82       	std	Z+1, r1	; 0x01
    1fae:	10 82       	st	Z, r1
	cores[31*4+0] = ULTIMA_LEITURA[1][0];
    1fb0:	80 91 01 02 	lds	r24, 0x0201
    1fb4:	90 91 02 02 	lds	r25, 0x0202
    1fb8:	32 96       	adiw	r30, 0x02	; 2
    1fba:	91 83       	std	Z+1, r25	; 0x01
    1fbc:	80 83       	st	Z, r24
	cores[31*4+1] = ULTIMA_LEITURA[1][1];
    1fbe:	80 91 03 02 	lds	r24, 0x0203
    1fc2:	90 91 04 02 	lds	r25, 0x0204
    1fc6:	32 96       	adiw	r30, 0x02	; 2
    1fc8:	91 83       	std	Z+1, r25	; 0x01
    1fca:	80 83       	st	Z, r24
	cores[31*4+2] = ULTIMA_LEITURA[1][2];
    1fcc:	80 91 05 02 	lds	r24, 0x0205
    1fd0:	90 91 06 02 	lds	r25, 0x0206
    1fd4:	32 96       	adiw	r30, 0x02	; 2
    1fd6:	91 83       	std	Z+1, r25	; 0x01
    1fd8:	80 83       	st	Z, r24
	cores[31*4+3] = 1;
    1fda:	32 96       	adiw	r30, 0x02	; 2
    1fdc:	f1 82       	std	Z+1, r15	; 0x01
    1fde:	e0 82       	st	Z, r14
	cores[24*4+0] = ULTIMA_LEITURA[2][0];
    1fe0:	80 91 09 02 	lds	r24, 0x0209
    1fe4:	90 91 0a 02 	lds	r25, 0x020A
    1fe8:	fe 97       	sbiw	r30, 0x3e	; 62
    1fea:	91 83       	std	Z+1, r25	; 0x01
    1fec:	80 83       	st	Z, r24
	cores[24*4+1] = ULTIMA_LEITURA[2][1];
    1fee:	80 91 0b 02 	lds	r24, 0x020B
    1ff2:	90 91 0c 02 	lds	r25, 0x020C
    1ff6:	32 96       	adiw	r30, 0x02	; 2
    1ff8:	91 83       	std	Z+1, r25	; 0x01
    1ffa:	80 83       	st	Z, r24
	cores[24*4+2] = ULTIMA_LEITURA[2][2];
    1ffc:	80 91 0d 02 	lds	r24, 0x020D
    2000:	90 91 0e 02 	lds	r25, 0x020E
    2004:	32 96       	adiw	r30, 0x02	; 2
    2006:	91 83       	std	Z+1, r25	; 0x01
    2008:	80 83       	st	Z, r24
	cores[24*4+3] = 2;
    200a:	32 96       	adiw	r30, 0x02	; 2
    200c:	11 83       	std	Z+1, r17	; 0x01
    200e:	00 83       	st	Z, r16
	translateTo(70);
    2010:	86 e4       	ldi	r24, 0x46	; 70
    2012:	90 e0       	ldi	r25, 0x00	; 0
    2014:	0e 94 c7 0a 	call	0x158e	; 0x158e <translateTo>
	fazerLeituraCorBruto();
    2018:	0e 94 c7 0b 	call	0x178e	; 0x178e <fazerLeituraCorBruto>
	cores[29*4+0] = ULTIMA_LEITURA[0][0];
    201c:	80 91 f9 01 	lds	r24, 0x01F9
    2020:	90 91 fa 01 	lds	r25, 0x01FA
    2024:	fe 01       	movw	r30, r28
    2026:	e8 51       	subi	r30, 0x18	; 24
    2028:	ff 4f       	sbci	r31, 0xFF	; 255
    202a:	91 83       	std	Z+1, r25	; 0x01
    202c:	80 83       	st	Z, r24
	cores[29*4+1] = ULTIMA_LEITURA[0][1];
    202e:	80 91 fb 01 	lds	r24, 0x01FB
    2032:	90 91 fc 01 	lds	r25, 0x01FC
    2036:	32 96       	adiw	r30, 0x02	; 2
    2038:	91 83       	std	Z+1, r25	; 0x01
    203a:	80 83       	st	Z, r24
	cores[29*4+2] = ULTIMA_LEITURA[0][2];
    203c:	80 91 fd 01 	lds	r24, 0x01FD
    2040:	90 91 fe 01 	lds	r25, 0x01FE
    2044:	32 96       	adiw	r30, 0x02	; 2
    2046:	91 83       	std	Z+1, r25	; 0x01
    2048:	80 83       	st	Z, r24
	cores[29*4+3] = 0;
    204a:	32 96       	adiw	r30, 0x02	; 2
    204c:	11 82       	std	Z+1, r1	; 0x01
    204e:	10 82       	st	Z, r1
	cores[51*4+0] = ULTIMA_LEITURA[1][0];
    2050:	80 91 01 02 	lds	r24, 0x0201
    2054:	90 91 02 02 	lds	r25, 0x0202
    2058:	e6 55       	subi	r30, 0x56	; 86
    205a:	ff 4f       	sbci	r31, 0xFF	; 255
    205c:	91 83       	std	Z+1, r25	; 0x01
    205e:	80 83       	st	Z, r24
	cores[51*4+1] = ULTIMA_LEITURA[1][1];
    2060:	80 91 03 02 	lds	r24, 0x0203
    2064:	90 91 04 02 	lds	r25, 0x0204
    2068:	32 96       	adiw	r30, 0x02	; 2
    206a:	91 83       	std	Z+1, r25	; 0x01
    206c:	80 83       	st	Z, r24
	cores[51*4+2] = ULTIMA_LEITURA[1][2];
    206e:	80 91 05 02 	lds	r24, 0x0205
    2072:	90 91 06 02 	lds	r25, 0x0206
    2076:	32 96       	adiw	r30, 0x02	; 2
    2078:	91 83       	std	Z+1, r25	; 0x01
    207a:	80 83       	st	Z, r24
	cores[51*4+3] = 1;
    207c:	32 96       	adiw	r30, 0x02	; 2
    207e:	f1 82       	std	Z+1, r15	; 0x01
    2080:	e0 82       	st	Z, r14
	cores[25*4+0] = ULTIMA_LEITURA[2][0];
    2082:	80 91 09 02 	lds	r24, 0x0209
    2086:	90 91 0a 02 	lds	r25, 0x020A
    208a:	e6 5d       	subi	r30, 0xD6	; 214
    208c:	f1 09       	sbc	r31, r1
    208e:	91 83       	std	Z+1, r25	; 0x01
    2090:	80 83       	st	Z, r24
	cores[25*4+1] = ULTIMA_LEITURA[2][1];
    2092:	80 91 0b 02 	lds	r24, 0x020B
    2096:	90 91 0c 02 	lds	r25, 0x020C
    209a:	32 96       	adiw	r30, 0x02	; 2
    209c:	91 83       	std	Z+1, r25	; 0x01
    209e:	80 83       	st	Z, r24
	cores[25*4+2] = ULTIMA_LEITURA[2][2];
    20a0:	80 91 0d 02 	lds	r24, 0x020D
    20a4:	90 91 0e 02 	lds	r25, 0x020E
    20a8:	32 96       	adiw	r30, 0x02	; 2
    20aa:	91 83       	std	Z+1, r25	; 0x01
    20ac:	80 83       	st	Z, r24
	cores[25*4+3] = 2;
    20ae:	32 96       	adiw	r30, 0x02	; 2
    20b0:	11 83       	std	Z+1, r17	; 0x01
    20b2:	00 83       	st	Z, r16
    20b4:	00 ef       	ldi	r16, 0xF0	; 240
    20b6:	10 e0       	ldi	r17, 0x00	; 0
	for(int a=0;a<240;a++)passoROTHOR();
    20b8:	0e 94 a1 09 	call	0x1342	; 0x1342 <passoROTHOR>
    20bc:	01 50       	subi	r16, 0x01	; 1
    20be:	11 09       	sbc	r17, r1
    20c0:	d9 f7       	brne	.-10     	; 0x20b8 <leituraInicial+0x394>
	soltaROT();
    20c2:	0e 94 9c 09 	call	0x1338	; 0x1338 <soltaROT>
	translateTo(160);
    20c6:	80 ea       	ldi	r24, 0xA0	; 160
    20c8:	90 e0       	ldi	r25, 0x00	; 0
    20ca:	0e 94 c7 0a 	call	0x158e	; 0x158e <translateTo>
	fazerLeituraCorBruto();
    20ce:	0e 94 c7 0b 	call	0x178e	; 0x178e <fazerLeituraCorBruto>
	cores[26*4+0] = ULTIMA_LEITURA[0][0];
    20d2:	80 91 f9 01 	lds	r24, 0x01F9
    20d6:	90 91 fa 01 	lds	r25, 0x01FA
    20da:	fe 01       	movw	r30, r28
    20dc:	e0 53       	subi	r30, 0x30	; 48
    20de:	ff 4f       	sbci	r31, 0xFF	; 255
    20e0:	91 83       	std	Z+1, r25	; 0x01
    20e2:	80 83       	st	Z, r24
	cores[26*4+1] = ULTIMA_LEITURA[0][1];
    20e4:	80 91 fb 01 	lds	r24, 0x01FB
    20e8:	90 91 fc 01 	lds	r25, 0x01FC
    20ec:	32 96       	adiw	r30, 0x02	; 2
    20ee:	91 83       	std	Z+1, r25	; 0x01
    20f0:	80 83       	st	Z, r24
	cores[26*4+2] = ULTIMA_LEITURA[0][2];
    20f2:	80 91 fd 01 	lds	r24, 0x01FD
    20f6:	90 91 fe 01 	lds	r25, 0x01FE
    20fa:	32 96       	adiw	r30, 0x02	; 2
    20fc:	91 83       	std	Z+1, r25	; 0x01
    20fe:	80 83       	st	Z, r24
	cores[26*4+3] = 0;
    2100:	32 96       	adiw	r30, 0x02	; 2
    2102:	11 82       	std	Z+1, r1	; 0x01
    2104:	10 82       	st	Z, r1
	cores[27*4+0] = ULTIMA_LEITURA[1][0];
    2106:	80 91 01 02 	lds	r24, 0x0201
    210a:	90 91 02 02 	lds	r25, 0x0202
    210e:	32 96       	adiw	r30, 0x02	; 2
    2110:	91 83       	std	Z+1, r25	; 0x01
    2112:	80 83       	st	Z, r24
	cores[27*4+1] = ULTIMA_LEITURA[1][1];
    2114:	80 91 03 02 	lds	r24, 0x0203
    2118:	90 91 04 02 	lds	r25, 0x0204
    211c:	32 96       	adiw	r30, 0x02	; 2
    211e:	91 83       	std	Z+1, r25	; 0x01
    2120:	80 83       	st	Z, r24
	cores[27*4+2] = ULTIMA_LEITURA[1][2];
    2122:	80 91 05 02 	lds	r24, 0x0205
    2126:	90 91 06 02 	lds	r25, 0x0206
    212a:	32 96       	adiw	r30, 0x02	; 2
    212c:	91 83       	std	Z+1, r25	; 0x01
    212e:	80 83       	st	Z, r24
	cores[27*4+3] = 1;
    2130:	81 e0       	ldi	r24, 0x01	; 1
    2132:	90 e0       	ldi	r25, 0x00	; 0
    2134:	32 96       	adiw	r30, 0x02	; 2
    2136:	91 83       	std	Z+1, r25	; 0x01
    2138:	80 83       	st	Z, r24
	cores[28*4+0] = ULTIMA_LEITURA[2][0];
    213a:	80 91 09 02 	lds	r24, 0x0209
    213e:	90 91 0a 02 	lds	r25, 0x020A
    2142:	32 96       	adiw	r30, 0x02	; 2
    2144:	91 83       	std	Z+1, r25	; 0x01
    2146:	80 83       	st	Z, r24
	cores[28*4+1] = ULTIMA_LEITURA[2][1];
    2148:	80 91 0b 02 	lds	r24, 0x020B
    214c:	90 91 0c 02 	lds	r25, 0x020C
    2150:	32 96       	adiw	r30, 0x02	; 2
    2152:	91 83       	std	Z+1, r25	; 0x01
    2154:	80 83       	st	Z, r24
	cores[28*4+2] = ULTIMA_LEITURA[2][2];
    2156:	80 91 0d 02 	lds	r24, 0x020D
    215a:	90 91 0e 02 	lds	r25, 0x020E
    215e:	32 96       	adiw	r30, 0x02	; 2
    2160:	91 83       	std	Z+1, r25	; 0x01
    2162:	80 83       	st	Z, r24
	cores[28*4+3] = 2;
    2164:	82 e0       	ldi	r24, 0x02	; 2
    2166:	90 e0       	ldi	r25, 0x00	; 0
    2168:	32 96       	adiw	r30, 0x02	; 2
    216a:	91 83       	std	Z+1, r25	; 0x01
    216c:	80 83       	st	Z, r24
	translateTo(310);
    216e:	86 e3       	ldi	r24, 0x36	; 54
    2170:	91 e0       	ldi	r25, 0x01	; 1
    2172:	0e 94 c7 0a 	call	0x158e	; 0x158e <translateTo>
	//Leitura Back--------------------------------------------------------------
	//putStr("BACK\n");
	tombaCubo();
    2176:	0e 94 35 0d 	call	0x1a6a	; 0x1a6a <tombaCubo>
	levantaBraco();
    217a:	0e 94 56 09 	call	0x12ac	; 0x12ac <levantaBraco>
	translateTo(50);
    217e:	82 e3       	ldi	r24, 0x32	; 50
    2180:	90 e0       	ldi	r25, 0x00	; 0
    2182:	0e 94 c7 0a 	call	0x158e	; 0x158e <translateTo>
    2186:	08 e7       	ldi	r16, 0x78	; 120
    2188:	10 e0       	ldi	r17, 0x00	; 0
	for(int a=0;a<120;a++)passoROTHOR();
    218a:	0e 94 a1 09 	call	0x1342	; 0x1342 <passoROTHOR>
    218e:	01 50       	subi	r16, 0x01	; 1
    2190:	11 09       	sbc	r17, r1
    2192:	d9 f7       	brne	.-10     	; 0x218a <leituraInicial+0x466>
	soltaROT();
    2194:	0e 94 9c 09 	call	0x1338	; 0x1338 <soltaROT>
	translateTo(160);
    2198:	80 ea       	ldi	r24, 0xA0	; 160
    219a:	90 e0       	ldi	r25, 0x00	; 0
    219c:	0e 94 c7 0a 	call	0x158e	; 0x158e <translateTo>
	soltaBraco();
    21a0:	0e 94 7a 09 	call	0x12f4	; 0x12f4 <soltaBraco>
	fazerLeituraCorBruto();
    21a4:	0e 94 c7 0b 	call	0x178e	; 0x178e <fazerLeituraCorBruto>
	cores[32*4+0] = ULTIMA_LEITURA[0][0];
    21a8:	80 91 f9 01 	lds	r24, 0x01F9
    21ac:	90 91 fa 01 	lds	r25, 0x01FA
    21b0:	fe 01       	movw	r30, r28
    21b2:	f3 95       	inc	r31
    21b4:	91 83       	std	Z+1, r25	; 0x01
    21b6:	80 83       	st	Z, r24
	cores[32*4+1] = ULTIMA_LEITURA[0][1];
    21b8:	80 91 fb 01 	lds	r24, 0x01FB
    21bc:	90 91 fc 01 	lds	r25, 0x01FC
    21c0:	32 96       	adiw	r30, 0x02	; 2
    21c2:	91 83       	std	Z+1, r25	; 0x01
    21c4:	80 83       	st	Z, r24
	cores[32*4+2] = ULTIMA_LEITURA[0][2];
    21c6:	80 91 fd 01 	lds	r24, 0x01FD
    21ca:	90 91 fe 01 	lds	r25, 0x01FE
    21ce:	32 96       	adiw	r30, 0x02	; 2
    21d0:	91 83       	std	Z+1, r25	; 0x01
    21d2:	80 83       	st	Z, r24
	cores[32*4+3] = 0;
    21d4:	32 96       	adiw	r30, 0x02	; 2
    21d6:	11 82       	std	Z+1, r1	; 0x01
    21d8:	10 82       	st	Z, r1
	cores[33*4+0] = ULTIMA_LEITURA[1][0];
    21da:	80 91 01 02 	lds	r24, 0x0201
    21de:	90 91 02 02 	lds	r25, 0x0202
    21e2:	32 96       	adiw	r30, 0x02	; 2
    21e4:	91 83       	std	Z+1, r25	; 0x01
    21e6:	80 83       	st	Z, r24
	cores[33*4+1] = ULTIMA_LEITURA[1][1];
    21e8:	80 91 03 02 	lds	r24, 0x0203
    21ec:	90 91 04 02 	lds	r25, 0x0204
    21f0:	32 96       	adiw	r30, 0x02	; 2
    21f2:	91 83       	std	Z+1, r25	; 0x01
    21f4:	80 83       	st	Z, r24
	cores[33*4+2] = ULTIMA_LEITURA[1][2];
    21f6:	80 91 05 02 	lds	r24, 0x0205
    21fa:	90 91 06 02 	lds	r25, 0x0206
    21fe:	32 96       	adiw	r30, 0x02	; 2
    2200:	91 83       	std	Z+1, r25	; 0x01
    2202:	80 83       	st	Z, r24
	cores[33*4+3] = 1;
    2204:	ee 24       	eor	r14, r14
    2206:	e3 94       	inc	r14
    2208:	f1 2c       	mov	r15, r1
    220a:	32 96       	adiw	r30, 0x02	; 2
    220c:	f1 82       	std	Z+1, r15	; 0x01
    220e:	e0 82       	st	Z, r14
	cores[34*4+0] = ULTIMA_LEITURA[2][0];
    2210:	80 91 09 02 	lds	r24, 0x0209
    2214:	90 91 0a 02 	lds	r25, 0x020A
    2218:	32 96       	adiw	r30, 0x02	; 2
    221a:	91 83       	std	Z+1, r25	; 0x01
    221c:	80 83       	st	Z, r24
	cores[34*4+1] = ULTIMA_LEITURA[2][1];
    221e:	80 91 0b 02 	lds	r24, 0x020B
    2222:	90 91 0c 02 	lds	r25, 0x020C
    2226:	32 96       	adiw	r30, 0x02	; 2
    2228:	91 83       	std	Z+1, r25	; 0x01
    222a:	80 83       	st	Z, r24
	cores[34*4+2] = ULTIMA_LEITURA[2][2];
    222c:	80 91 0d 02 	lds	r24, 0x020D
    2230:	90 91 0e 02 	lds	r25, 0x020E
    2234:	32 96       	adiw	r30, 0x02	; 2
    2236:	91 83       	std	Z+1, r25	; 0x01
    2238:	80 83       	st	Z, r24
	cores[34*4+3] = 2;
    223a:	02 e0       	ldi	r16, 0x02	; 2
    223c:	10 e0       	ldi	r17, 0x00	; 0
    223e:	32 96       	adiw	r30, 0x02	; 2
    2240:	11 83       	std	Z+1, r17	; 0x01
    2242:	00 83       	st	Z, r16
	translateTo(70);
    2244:	86 e4       	ldi	r24, 0x46	; 70
    2246:	90 e0       	ldi	r25, 0x00	; 0
    2248:	0e 94 c7 0a 	call	0x158e	; 0x158e <translateTo>
	fazerLeituraCorBruto();
    224c:	0e 94 c7 0b 	call	0x178e	; 0x178e <fazerLeituraCorBruto>
	cores[39*4+0] = ULTIMA_LEITURA[0][0];
    2250:	80 91 f9 01 	lds	r24, 0x01F9
    2254:	90 91 fa 01 	lds	r25, 0x01FA
    2258:	fe 01       	movw	r30, r28
    225a:	e8 5c       	subi	r30, 0xC8	; 200
    225c:	fe 4f       	sbci	r31, 0xFE	; 254
    225e:	91 83       	std	Z+1, r25	; 0x01
    2260:	80 83       	st	Z, r24
	cores[39*4+1] = ULTIMA_LEITURA[0][1];
    2262:	80 91 fb 01 	lds	r24, 0x01FB
    2266:	90 91 fc 01 	lds	r25, 0x01FC
    226a:	32 96       	adiw	r30, 0x02	; 2
    226c:	91 83       	std	Z+1, r25	; 0x01
    226e:	80 83       	st	Z, r24
	cores[39*4+2] = ULTIMA_LEITURA[0][2];
    2270:	80 91 fd 01 	lds	r24, 0x01FD
    2274:	90 91 fe 01 	lds	r25, 0x01FE
    2278:	32 96       	adiw	r30, 0x02	; 2
    227a:	91 83       	std	Z+1, r25	; 0x01
    227c:	80 83       	st	Z, r24
	cores[39*4+3] = 0;
    227e:	32 96       	adiw	r30, 0x02	; 2
    2280:	11 82       	std	Z+1, r1	; 0x01
    2282:	10 82       	st	Z, r1
	cores[52*4+0] = ULTIMA_LEITURA[1][0];
    2284:	80 91 01 02 	lds	r24, 0x0201
    2288:	90 91 02 02 	lds	r25, 0x0202
    228c:	ee 59       	subi	r30, 0x9E	; 158
    228e:	ff 4f       	sbci	r31, 0xFF	; 255
    2290:	91 83       	std	Z+1, r25	; 0x01
    2292:	80 83       	st	Z, r24
	cores[52*4+1] = ULTIMA_LEITURA[1][1];
    2294:	80 91 03 02 	lds	r24, 0x0203
    2298:	90 91 04 02 	lds	r25, 0x0204
    229c:	32 96       	adiw	r30, 0x02	; 2
    229e:	91 83       	std	Z+1, r25	; 0x01
    22a0:	80 83       	st	Z, r24
	cores[52*4+2] = ULTIMA_LEITURA[1][2];
    22a2:	80 91 05 02 	lds	r24, 0x0205
    22a6:	90 91 06 02 	lds	r25, 0x0206
    22aa:	32 96       	adiw	r30, 0x02	; 2
    22ac:	91 83       	std	Z+1, r25	; 0x01
    22ae:	80 83       	st	Z, r24
	cores[52*4+3] = 1;
    22b0:	32 96       	adiw	r30, 0x02	; 2
    22b2:	f1 82       	std	Z+1, r15	; 0x01
    22b4:	e0 82       	st	Z, r14
	cores[35*4+0] = ULTIMA_LEITURA[2][0];
    22b6:	80 91 09 02 	lds	r24, 0x0209
    22ba:	90 91 0a 02 	lds	r25, 0x020A
    22be:	ee 58       	subi	r30, 0x8E	; 142
    22c0:	f1 09       	sbc	r31, r1
    22c2:	91 83       	std	Z+1, r25	; 0x01
    22c4:	80 83       	st	Z, r24
	cores[35*4+1] = ULTIMA_LEITURA[2][1];
    22c6:	80 91 0b 02 	lds	r24, 0x020B
    22ca:	90 91 0c 02 	lds	r25, 0x020C
    22ce:	32 96       	adiw	r30, 0x02	; 2
    22d0:	91 83       	std	Z+1, r25	; 0x01
    22d2:	80 83       	st	Z, r24
	cores[35*4+2] = ULTIMA_LEITURA[2][2];
    22d4:	80 91 0d 02 	lds	r24, 0x020D
    22d8:	90 91 0e 02 	lds	r25, 0x020E
    22dc:	32 96       	adiw	r30, 0x02	; 2
    22de:	91 83       	std	Z+1, r25	; 0x01
    22e0:	80 83       	st	Z, r24
	cores[35*4+3] = 2;
    22e2:	32 96       	adiw	r30, 0x02	; 2
    22e4:	11 83       	std	Z+1, r17	; 0x01
    22e6:	00 83       	st	Z, r16
    22e8:	00 ef       	ldi	r16, 0xF0	; 240
    22ea:	10 e0       	ldi	r17, 0x00	; 0
	for(int a=0;a<240;a++)passoROTHOR();
    22ec:	0e 94 a1 09 	call	0x1342	; 0x1342 <passoROTHOR>
    22f0:	01 50       	subi	r16, 0x01	; 1
    22f2:	11 09       	sbc	r17, r1
    22f4:	d9 f7       	brne	.-10     	; 0x22ec <leituraInicial+0x5c8>
	soltaROT();
    22f6:	0e 94 9c 09 	call	0x1338	; 0x1338 <soltaROT>
	translateTo(160);
    22fa:	80 ea       	ldi	r24, 0xA0	; 160
    22fc:	90 e0       	ldi	r25, 0x00	; 0
    22fe:	0e 94 c7 0a 	call	0x158e	; 0x158e <translateTo>
	fazerLeituraCorBruto();
    2302:	0e 94 c7 0b 	call	0x178e	; 0x178e <fazerLeituraCorBruto>
	cores[36*4+0] = ULTIMA_LEITURA[0][0];
    2306:	80 91 f9 01 	lds	r24, 0x01F9
    230a:	90 91 fa 01 	lds	r25, 0x01FA
    230e:	fe 01       	movw	r30, r28
    2310:	e0 5e       	subi	r30, 0xE0	; 224
    2312:	fe 4f       	sbci	r31, 0xFE	; 254
    2314:	91 83       	std	Z+1, r25	; 0x01
    2316:	80 83       	st	Z, r24
	cores[36*4+1] = ULTIMA_LEITURA[0][1];
    2318:	80 91 fb 01 	lds	r24, 0x01FB
    231c:	90 91 fc 01 	lds	r25, 0x01FC
    2320:	32 96       	adiw	r30, 0x02	; 2
    2322:	91 83       	std	Z+1, r25	; 0x01
    2324:	80 83       	st	Z, r24
	cores[36*4+2] = ULTIMA_LEITURA[0][2];
    2326:	80 91 fd 01 	lds	r24, 0x01FD
    232a:	90 91 fe 01 	lds	r25, 0x01FE
    232e:	32 96       	adiw	r30, 0x02	; 2
    2330:	91 83       	std	Z+1, r25	; 0x01
    2332:	80 83       	st	Z, r24
	cores[36*4+3] = 0;
    2334:	32 96       	adiw	r30, 0x02	; 2
    2336:	11 82       	std	Z+1, r1	; 0x01
    2338:	10 82       	st	Z, r1
	cores[37*4+0] = ULTIMA_LEITURA[1][0];
    233a:	80 91 01 02 	lds	r24, 0x0201
    233e:	90 91 02 02 	lds	r25, 0x0202
    2342:	32 96       	adiw	r30, 0x02	; 2
    2344:	91 83       	std	Z+1, r25	; 0x01
    2346:	80 83       	st	Z, r24
	cores[37*4+1] = ULTIMA_LEITURA[1][1];
    2348:	80 91 03 02 	lds	r24, 0x0203
    234c:	90 91 04 02 	lds	r25, 0x0204
    2350:	32 96       	adiw	r30, 0x02	; 2
    2352:	91 83       	std	Z+1, r25	; 0x01
    2354:	80 83       	st	Z, r24
	cores[37*4+2] = ULTIMA_LEITURA[1][2];
    2356:	80 91 05 02 	lds	r24, 0x0205
    235a:	90 91 06 02 	lds	r25, 0x0206
    235e:	32 96       	adiw	r30, 0x02	; 2
    2360:	91 83       	std	Z+1, r25	; 0x01
    2362:	80 83       	st	Z, r24
	cores[37*4+3] = 1;
    2364:	81 e0       	ldi	r24, 0x01	; 1
    2366:	90 e0       	ldi	r25, 0x00	; 0
    2368:	32 96       	adiw	r30, 0x02	; 2
    236a:	91 83       	std	Z+1, r25	; 0x01
    236c:	80 83       	st	Z, r24
	cores[38*4+0] = ULTIMA_LEITURA[2][0];
    236e:	80 91 09 02 	lds	r24, 0x0209
    2372:	90 91 0a 02 	lds	r25, 0x020A
    2376:	32 96       	adiw	r30, 0x02	; 2
    2378:	91 83       	std	Z+1, r25	; 0x01
    237a:	80 83       	st	Z, r24
	cores[38*4+1] = ULTIMA_LEITURA[2][1];
    237c:	80 91 0b 02 	lds	r24, 0x020B
    2380:	90 91 0c 02 	lds	r25, 0x020C
    2384:	32 96       	adiw	r30, 0x02	; 2
    2386:	91 83       	std	Z+1, r25	; 0x01
    2388:	80 83       	st	Z, r24
	cores[38*4+2] = ULTIMA_LEITURA[2][2];
    238a:	80 91 0d 02 	lds	r24, 0x020D
    238e:	90 91 0e 02 	lds	r25, 0x020E
    2392:	32 96       	adiw	r30, 0x02	; 2
    2394:	91 83       	std	Z+1, r25	; 0x01
    2396:	80 83       	st	Z, r24
	cores[38*4+3] = 2;
    2398:	82 e0       	ldi	r24, 0x02	; 2
    239a:	90 e0       	ldi	r25, 0x00	; 0
    239c:	32 96       	adiw	r30, 0x02	; 2
    239e:	91 83       	std	Z+1, r25	; 0x01
    23a0:	80 83       	st	Z, r24
	translateTo(310);
    23a2:	86 e3       	ldi	r24, 0x36	; 54
    23a4:	91 e0       	ldi	r25, 0x01	; 1
    23a6:	0e 94 c7 0a 	call	0x158e	; 0x158e <translateTo>
	//Leitura Down-------------------------------------------------------------
	//putStr("DOWN\n");
	tombaCubo();
    23aa:	0e 94 35 0d 	call	0x1a6a	; 0x1a6a <tombaCubo>
	levantaBraco();
    23ae:	0e 94 56 09 	call	0x12ac	; 0x12ac <levantaBraco>
	translateTo(50);
    23b2:	82 e3       	ldi	r24, 0x32	; 50
    23b4:	90 e0       	ldi	r25, 0x00	; 0
    23b6:	0e 94 c7 0a 	call	0x158e	; 0x158e <translateTo>
    23ba:	00 ef       	ldi	r16, 0xF0	; 240
    23bc:	10 e0       	ldi	r17, 0x00	; 0
	for(int a=0;a<240;a++)passoROTHOR();
    23be:	0e 94 a1 09 	call	0x1342	; 0x1342 <passoROTHOR>
    23c2:	01 50       	subi	r16, 0x01	; 1
    23c4:	11 09       	sbc	r17, r1
    23c6:	d9 f7       	brne	.-10     	; 0x23be <leituraInicial+0x69a>
	soltaROT();
    23c8:	0e 94 9c 09 	call	0x1338	; 0x1338 <soltaROT>
	translateTo(160);
    23cc:	80 ea       	ldi	r24, 0xA0	; 160
    23ce:	90 e0       	ldi	r25, 0x00	; 0
    23d0:	0e 94 c7 0a 	call	0x158e	; 0x158e <translateTo>
	soltaBraco();
    23d4:	0e 94 7a 09 	call	0x12f4	; 0x12f4 <soltaBraco>
	fazerLeituraCorBruto();
    23d8:	0e 94 c7 0b 	call	0x178e	; 0x178e <fazerLeituraCorBruto>
	cores[44*4+0] = ULTIMA_LEITURA[0][0];
    23dc:	80 91 f9 01 	lds	r24, 0x01F9
    23e0:	90 91 fa 01 	lds	r25, 0x01FA
    23e4:	fe 01       	movw	r30, r28
    23e6:	e0 5a       	subi	r30, 0xA0	; 160
    23e8:	fe 4f       	sbci	r31, 0xFE	; 254
    23ea:	91 83       	std	Z+1, r25	; 0x01
    23ec:	80 83       	st	Z, r24
	cores[44*4+1] = ULTIMA_LEITURA[0][1];
    23ee:	80 91 fb 01 	lds	r24, 0x01FB
    23f2:	90 91 fc 01 	lds	r25, 0x01FC
    23f6:	32 96       	adiw	r30, 0x02	; 2
    23f8:	91 83       	std	Z+1, r25	; 0x01
    23fa:	80 83       	st	Z, r24
	cores[44*4+2] = ULTIMA_LEITURA[0][2];
    23fc:	80 91 fd 01 	lds	r24, 0x01FD
    2400:	90 91 fe 01 	lds	r25, 0x01FE
    2404:	32 96       	adiw	r30, 0x02	; 2
    2406:	91 83       	std	Z+1, r25	; 0x01
    2408:	80 83       	st	Z, r24
	cores[44*4+3] = 0;
    240a:	32 96       	adiw	r30, 0x02	; 2
    240c:	11 82       	std	Z+1, r1	; 0x01
    240e:	10 82       	st	Z, r1
	cores[45*4+0] = ULTIMA_LEITURA[1][0];
    2410:	80 91 01 02 	lds	r24, 0x0201
    2414:	90 91 02 02 	lds	r25, 0x0202
    2418:	32 96       	adiw	r30, 0x02	; 2
    241a:	91 83       	std	Z+1, r25	; 0x01
    241c:	80 83       	st	Z, r24
	cores[45*4+1] = ULTIMA_LEITURA[1][1];
    241e:	80 91 03 02 	lds	r24, 0x0203
    2422:	90 91 04 02 	lds	r25, 0x0204
    2426:	32 96       	adiw	r30, 0x02	; 2
    2428:	91 83       	std	Z+1, r25	; 0x01
    242a:	80 83       	st	Z, r24
	cores[45*4+2] = ULTIMA_LEITURA[1][2];
    242c:	80 91 05 02 	lds	r24, 0x0205
    2430:	90 91 06 02 	lds	r25, 0x0206
    2434:	32 96       	adiw	r30, 0x02	; 2
    2436:	91 83       	std	Z+1, r25	; 0x01
    2438:	80 83       	st	Z, r24
	cores[45*4+3] = 1;
    243a:	ee 24       	eor	r14, r14
    243c:	e3 94       	inc	r14
    243e:	f1 2c       	mov	r15, r1
    2440:	32 96       	adiw	r30, 0x02	; 2
    2442:	f1 82       	std	Z+1, r15	; 0x01
    2444:	e0 82       	st	Z, r14
	cores[46*4+0] = ULTIMA_LEITURA[2][0];
    2446:	80 91 09 02 	lds	r24, 0x0209
    244a:	90 91 0a 02 	lds	r25, 0x020A
    244e:	32 96       	adiw	r30, 0x02	; 2
    2450:	91 83       	std	Z+1, r25	; 0x01
    2452:	80 83       	st	Z, r24
	cores[46*4+1] = ULTIMA_LEITURA[2][1];
    2454:	80 91 0b 02 	lds	r24, 0x020B
    2458:	90 91 0c 02 	lds	r25, 0x020C
    245c:	32 96       	adiw	r30, 0x02	; 2
    245e:	91 83       	std	Z+1, r25	; 0x01
    2460:	80 83       	st	Z, r24
	cores[46*4+2] = ULTIMA_LEITURA[2][2];
    2462:	80 91 0d 02 	lds	r24, 0x020D
    2466:	90 91 0e 02 	lds	r25, 0x020E
    246a:	32 96       	adiw	r30, 0x02	; 2
    246c:	91 83       	std	Z+1, r25	; 0x01
    246e:	80 83       	st	Z, r24
	cores[46*4+3] = 2;
    2470:	02 e0       	ldi	r16, 0x02	; 2
    2472:	10 e0       	ldi	r17, 0x00	; 0
    2474:	32 96       	adiw	r30, 0x02	; 2
    2476:	11 83       	std	Z+1, r17	; 0x01
    2478:	00 83       	st	Z, r16
	translateTo(70);
    247a:	86 e4       	ldi	r24, 0x46	; 70
    247c:	90 e0       	ldi	r25, 0x00	; 0
    247e:	0e 94 c7 0a 	call	0x158e	; 0x158e <translateTo>
	fazerLeituraCorBruto();
    2482:	0e 94 c7 0b 	call	0x178e	; 0x178e <fazerLeituraCorBruto>
	cores[43*4+0] = ULTIMA_LEITURA[0][0];
    2486:	80 91 f9 01 	lds	r24, 0x01F9
    248a:	90 91 fa 01 	lds	r25, 0x01FA
    248e:	fe 01       	movw	r30, r28
    2490:	e8 5a       	subi	r30, 0xA8	; 168
    2492:	fe 4f       	sbci	r31, 0xFE	; 254
    2494:	91 83       	std	Z+1, r25	; 0x01
    2496:	80 83       	st	Z, r24
	cores[43*4+1] = ULTIMA_LEITURA[0][1];
    2498:	80 91 fb 01 	lds	r24, 0x01FB
    249c:	90 91 fc 01 	lds	r25, 0x01FC
    24a0:	32 96       	adiw	r30, 0x02	; 2
    24a2:	91 83       	std	Z+1, r25	; 0x01
    24a4:	80 83       	st	Z, r24
	cores[43*4+2] = ULTIMA_LEITURA[0][2];
    24a6:	80 91 fd 01 	lds	r24, 0x01FD
    24aa:	90 91 fe 01 	lds	r25, 0x01FE
    24ae:	32 96       	adiw	r30, 0x02	; 2
    24b0:	91 83       	std	Z+1, r25	; 0x01
    24b2:	80 83       	st	Z, r24
	cores[43*4+3] = 0;
    24b4:	32 96       	adiw	r30, 0x02	; 2
    24b6:	11 82       	std	Z+1, r1	; 0x01
    24b8:	10 82       	st	Z, r1
	cores[53*4+0] = ULTIMA_LEITURA[1][0];
    24ba:	80 91 01 02 	lds	r24, 0x0201
    24be:	90 91 02 02 	lds	r25, 0x0202
    24c2:	e6 5b       	subi	r30, 0xB6	; 182
    24c4:	ff 4f       	sbci	r31, 0xFF	; 255
    24c6:	91 83       	std	Z+1, r25	; 0x01
    24c8:	80 83       	st	Z, r24
	cores[53*4+1] = ULTIMA_LEITURA[1][1];
    24ca:	80 91 03 02 	lds	r24, 0x0203
    24ce:	90 91 04 02 	lds	r25, 0x0204
    24d2:	32 96       	adiw	r30, 0x02	; 2
    24d4:	91 83       	std	Z+1, r25	; 0x01
    24d6:	80 83       	st	Z, r24
	cores[53*4+2] = ULTIMA_LEITURA[1][2];
    24d8:	80 91 05 02 	lds	r24, 0x0205
    24dc:	90 91 06 02 	lds	r25, 0x0206
    24e0:	32 96       	adiw	r30, 0x02	; 2
    24e2:	91 83       	std	Z+1, r25	; 0x01
    24e4:	80 83       	st	Z, r24
	cores[53*4+3] = 1;
    24e6:	32 96       	adiw	r30, 0x02	; 2
    24e8:	f1 82       	std	Z+1, r15	; 0x01
    24ea:	e0 82       	st	Z, r14
	cores[47*4+0] = ULTIMA_LEITURA[2][0];
    24ec:	80 91 09 02 	lds	r24, 0x0209
    24f0:	90 91 0a 02 	lds	r25, 0x020A
    24f4:	f6 97       	sbiw	r30, 0x36	; 54
    24f6:	91 83       	std	Z+1, r25	; 0x01
    24f8:	80 83       	st	Z, r24
	cores[47*4+1] = ULTIMA_LEITURA[2][1];
    24fa:	80 91 0b 02 	lds	r24, 0x020B
    24fe:	90 91 0c 02 	lds	r25, 0x020C
    2502:	32 96       	adiw	r30, 0x02	; 2
    2504:	91 83       	std	Z+1, r25	; 0x01
    2506:	80 83       	st	Z, r24
	cores[47*4+2] = ULTIMA_LEITURA[2][2];
    2508:	80 91 0d 02 	lds	r24, 0x020D
    250c:	90 91 0e 02 	lds	r25, 0x020E
    2510:	32 96       	adiw	r30, 0x02	; 2
    2512:	91 83       	std	Z+1, r25	; 0x01
    2514:	80 83       	st	Z, r24
	cores[47*4+3] = 2;
    2516:	32 96       	adiw	r30, 0x02	; 2
    2518:	11 83       	std	Z+1, r17	; 0x01
    251a:	00 83       	st	Z, r16
    251c:	00 ef       	ldi	r16, 0xF0	; 240
    251e:	10 e0       	ldi	r17, 0x00	; 0
	for(int a=0;a<240;a++)passoROTHOR();
    2520:	0e 94 a1 09 	call	0x1342	; 0x1342 <passoROTHOR>
    2524:	01 50       	subi	r16, 0x01	; 1
    2526:	11 09       	sbc	r17, r1
    2528:	d9 f7       	brne	.-10     	; 0x2520 <leituraInicial+0x7fc>
	soltaROT();
    252a:	0e 94 9c 09 	call	0x1338	; 0x1338 <soltaROT>
	translateTo(160);
    252e:	80 ea       	ldi	r24, 0xA0	; 160
    2530:	90 e0       	ldi	r25, 0x00	; 0
    2532:	0e 94 c7 0a 	call	0x158e	; 0x158e <translateTo>
	fazerLeituraCorBruto();
    2536:	0e 94 c7 0b 	call	0x178e	; 0x178e <fazerLeituraCorBruto>
	cores[40*4+0] = ULTIMA_LEITURA[0][0];
    253a:	80 91 f9 01 	lds	r24, 0x01F9
    253e:	90 91 fa 01 	lds	r25, 0x01FA
    2542:	fe 01       	movw	r30, r28
    2544:	e0 5c       	subi	r30, 0xC0	; 192
    2546:	fe 4f       	sbci	r31, 0xFE	; 254
    2548:	91 83       	std	Z+1, r25	; 0x01
    254a:	80 83       	st	Z, r24
	cores[40*4+1] = ULTIMA_LEITURA[0][1];
    254c:	80 91 fb 01 	lds	r24, 0x01FB
    2550:	90 91 fc 01 	lds	r25, 0x01FC
    2554:	32 96       	adiw	r30, 0x02	; 2
    2556:	91 83       	std	Z+1, r25	; 0x01
    2558:	80 83       	st	Z, r24
	cores[40*4+2] = ULTIMA_LEITURA[0][2];
    255a:	80 91 fd 01 	lds	r24, 0x01FD
    255e:	90 91 fe 01 	lds	r25, 0x01FE
    2562:	32 96       	adiw	r30, 0x02	; 2
    2564:	91 83       	std	Z+1, r25	; 0x01
    2566:	80 83       	st	Z, r24
	cores[40*4+3] = 0;
    2568:	32 96       	adiw	r30, 0x02	; 2
    256a:	11 82       	std	Z+1, r1	; 0x01
    256c:	10 82       	st	Z, r1
	cores[41*4+0] = ULTIMA_LEITURA[1][0];
    256e:	80 91 01 02 	lds	r24, 0x0201
    2572:	90 91 02 02 	lds	r25, 0x0202
    2576:	32 96       	adiw	r30, 0x02	; 2
    2578:	91 83       	std	Z+1, r25	; 0x01
    257a:	80 83       	st	Z, r24
	cores[41*4+1] = ULTIMA_LEITURA[1][1];
    257c:	80 91 03 02 	lds	r24, 0x0203
    2580:	90 91 04 02 	lds	r25, 0x0204
    2584:	32 96       	adiw	r30, 0x02	; 2
    2586:	91 83       	std	Z+1, r25	; 0x01
    2588:	80 83       	st	Z, r24
	cores[41*4+2] = ULTIMA_LEITURA[1][2];
    258a:	80 91 05 02 	lds	r24, 0x0205
    258e:	90 91 06 02 	lds	r25, 0x0206
    2592:	32 96       	adiw	r30, 0x02	; 2
    2594:	91 83       	std	Z+1, r25	; 0x01
    2596:	80 83       	st	Z, r24
	cores[41*4+3] = 1;
    2598:	81 e0       	ldi	r24, 0x01	; 1
    259a:	90 e0       	ldi	r25, 0x00	; 0
    259c:	32 96       	adiw	r30, 0x02	; 2
    259e:	91 83       	std	Z+1, r25	; 0x01
    25a0:	80 83       	st	Z, r24
	cores[42*4+0] = ULTIMA_LEITURA[2][0];
    25a2:	80 91 09 02 	lds	r24, 0x0209
    25a6:	90 91 0a 02 	lds	r25, 0x020A
    25aa:	32 96       	adiw	r30, 0x02	; 2
    25ac:	91 83       	std	Z+1, r25	; 0x01
    25ae:	80 83       	st	Z, r24
	cores[42*4+1] = ULTIMA_LEITURA[2][1];
    25b0:	80 91 0b 02 	lds	r24, 0x020B
    25b4:	90 91 0c 02 	lds	r25, 0x020C
    25b8:	32 96       	adiw	r30, 0x02	; 2
    25ba:	91 83       	std	Z+1, r25	; 0x01
    25bc:	80 83       	st	Z, r24
	cores[42*4+2] = ULTIMA_LEITURA[2][2];
    25be:	80 91 0d 02 	lds	r24, 0x020D
    25c2:	90 91 0e 02 	lds	r25, 0x020E
    25c6:	32 96       	adiw	r30, 0x02	; 2
    25c8:	91 83       	std	Z+1, r25	; 0x01
    25ca:	80 83       	st	Z, r24
	cores[42*4+3] = 2;
    25cc:	82 e0       	ldi	r24, 0x02	; 2
    25ce:	90 e0       	ldi	r25, 0x00	; 0
    25d0:	32 96       	adiw	r30, 0x02	; 2
    25d2:	91 83       	std	Z+1, r25	; 0x01
    25d4:	80 83       	st	Z, r24
	translateTo(310);
    25d6:	86 e3       	ldi	r24, 0x36	; 54
    25d8:	91 e0       	ldi	r25, 0x01	; 1
    25da:	0e 94 c7 0a 	call	0x158e	; 0x158e <translateTo>
	//Leitura Front-----------------------------------------------------------
	//putStr("FRONT\n");
	tombaCubo();
    25de:	0e 94 35 0d 	call	0x1a6a	; 0x1a6a <tombaCubo>
	levantaBraco();
    25e2:	0e 94 56 09 	call	0x12ac	; 0x12ac <levantaBraco>
	translateTo(50);
    25e6:	82 e3       	ldi	r24, 0x32	; 50
    25e8:	90 e0       	ldi	r25, 0x00	; 0
    25ea:	0e 94 c7 0a 	call	0x158e	; 0x158e <translateTo>
    25ee:	00 ef       	ldi	r16, 0xF0	; 240
    25f0:	10 e0       	ldi	r17, 0x00	; 0
	for(int a=0;a<240;a++)passoROTHOR();
    25f2:	0e 94 a1 09 	call	0x1342	; 0x1342 <passoROTHOR>
    25f6:	01 50       	subi	r16, 0x01	; 1
    25f8:	11 09       	sbc	r17, r1
    25fa:	d9 f7       	brne	.-10     	; 0x25f2 <leituraInicial+0x8ce>
	soltaROT();
    25fc:	0e 94 9c 09 	call	0x1338	; 0x1338 <soltaROT>
	translateTo(160);
    2600:	80 ea       	ldi	r24, 0xA0	; 160
    2602:	90 e0       	ldi	r25, 0x00	; 0
    2604:	0e 94 c7 0a 	call	0x158e	; 0x158e <translateTo>
	soltaBraco();
    2608:	0e 94 7a 09 	call	0x12f4	; 0x12f4 <soltaBraco>
	fazerLeituraCorBruto();
    260c:	0e 94 c7 0b 	call	0x178e	; 0x178e <fazerLeituraCorBruto>
	cores[20*4+0] = ULTIMA_LEITURA[0][0];
    2610:	80 91 f9 01 	lds	r24, 0x01F9
    2614:	90 91 fa 01 	lds	r25, 0x01FA
    2618:	fe 01       	movw	r30, r28
    261a:	e0 56       	subi	r30, 0x60	; 96
    261c:	ff 4f       	sbci	r31, 0xFF	; 255
    261e:	91 83       	std	Z+1, r25	; 0x01
    2620:	80 83       	st	Z, r24
	cores[20*4+1] = ULTIMA_LEITURA[0][1];
    2622:	80 91 fb 01 	lds	r24, 0x01FB
    2626:	90 91 fc 01 	lds	r25, 0x01FC
    262a:	32 96       	adiw	r30, 0x02	; 2
    262c:	91 83       	std	Z+1, r25	; 0x01
    262e:	80 83       	st	Z, r24
	cores[20*4+2] = ULTIMA_LEITURA[0][2];
    2630:	80 91 fd 01 	lds	r24, 0x01FD
    2634:	90 91 fe 01 	lds	r25, 0x01FE
    2638:	32 96       	adiw	r30, 0x02	; 2
    263a:	91 83       	std	Z+1, r25	; 0x01
    263c:	80 83       	st	Z, r24
	cores[20*4+3] = 0;
    263e:	32 96       	adiw	r30, 0x02	; 2
    2640:	11 82       	std	Z+1, r1	; 0x01
    2642:	10 82       	st	Z, r1
	cores[21*4+0] = ULTIMA_LEITURA[1][0];
    2644:	80 91 01 02 	lds	r24, 0x0201
    2648:	90 91 02 02 	lds	r25, 0x0202
    264c:	32 96       	adiw	r30, 0x02	; 2
    264e:	91 83       	std	Z+1, r25	; 0x01
    2650:	80 83       	st	Z, r24
	cores[21*4+1] = ULTIMA_LEITURA[1][1];
    2652:	80 91 03 02 	lds	r24, 0x0203
    2656:	90 91 04 02 	lds	r25, 0x0204
    265a:	32 96       	adiw	r30, 0x02	; 2
    265c:	91 83       	std	Z+1, r25	; 0x01
    265e:	80 83       	st	Z, r24
	cores[21*4+2] = ULTIMA_LEITURA[1][2];
    2660:	80 91 05 02 	lds	r24, 0x0205
    2664:	90 91 06 02 	lds	r25, 0x0206
    2668:	32 96       	adiw	r30, 0x02	; 2
    266a:	91 83       	std	Z+1, r25	; 0x01
    266c:	80 83       	st	Z, r24
	cores[21*4+3] = 1;
    266e:	ee 24       	eor	r14, r14
    2670:	e3 94       	inc	r14
    2672:	f1 2c       	mov	r15, r1
    2674:	32 96       	adiw	r30, 0x02	; 2
    2676:	f1 82       	std	Z+1, r15	; 0x01
    2678:	e0 82       	st	Z, r14
	cores[22*4+0] = ULTIMA_LEITURA[2][0];
    267a:	80 91 09 02 	lds	r24, 0x0209
    267e:	90 91 0a 02 	lds	r25, 0x020A
    2682:	32 96       	adiw	r30, 0x02	; 2
    2684:	91 83       	std	Z+1, r25	; 0x01
    2686:	80 83       	st	Z, r24
	cores[22*4+1] = ULTIMA_LEITURA[2][1];
    2688:	80 91 0b 02 	lds	r24, 0x020B
    268c:	90 91 0c 02 	lds	r25, 0x020C
    2690:	32 96       	adiw	r30, 0x02	; 2
    2692:	91 83       	std	Z+1, r25	; 0x01
    2694:	80 83       	st	Z, r24
	cores[22*4+2] = ULTIMA_LEITURA[2][2];
    2696:	80 91 0d 02 	lds	r24, 0x020D
    269a:	90 91 0e 02 	lds	r25, 0x020E
    269e:	32 96       	adiw	r30, 0x02	; 2
    26a0:	91 83       	std	Z+1, r25	; 0x01
    26a2:	80 83       	st	Z, r24
	cores[22*4+3] = 2;
    26a4:	02 e0       	ldi	r16, 0x02	; 2
    26a6:	10 e0       	ldi	r17, 0x00	; 0
    26a8:	32 96       	adiw	r30, 0x02	; 2
    26aa:	11 83       	std	Z+1, r17	; 0x01
    26ac:	00 83       	st	Z, r16
	translateTo(70);
    26ae:	86 e4       	ldi	r24, 0x46	; 70
    26b0:	90 e0       	ldi	r25, 0x00	; 0
    26b2:	0e 94 c7 0a 	call	0x158e	; 0x158e <translateTo>
	fazerLeituraCorBruto();
    26b6:	0e 94 c7 0b 	call	0x178e	; 0x178e <fazerLeituraCorBruto>
	cores[19*4+0] = ULTIMA_LEITURA[0][0];
    26ba:	80 91 f9 01 	lds	r24, 0x01F9
    26be:	90 91 fa 01 	lds	r25, 0x01FA
    26c2:	fe 01       	movw	r30, r28
    26c4:	e8 56       	subi	r30, 0x68	; 104
    26c6:	ff 4f       	sbci	r31, 0xFF	; 255
    26c8:	91 83       	std	Z+1, r25	; 0x01
    26ca:	80 83       	st	Z, r24
	cores[19*4+1] = ULTIMA_LEITURA[0][1];
    26cc:	80 91 fb 01 	lds	r24, 0x01FB
    26d0:	90 91 fc 01 	lds	r25, 0x01FC
    26d4:	32 96       	adiw	r30, 0x02	; 2
    26d6:	91 83       	std	Z+1, r25	; 0x01
    26d8:	80 83       	st	Z, r24
	cores[19*4+2] = ULTIMA_LEITURA[0][2];
    26da:	80 91 fd 01 	lds	r24, 0x01FD
    26de:	90 91 fe 01 	lds	r25, 0x01FE
    26e2:	32 96       	adiw	r30, 0x02	; 2
    26e4:	91 83       	std	Z+1, r25	; 0x01
    26e6:	80 83       	st	Z, r24
	cores[19*4+3] = 0;
    26e8:	32 96       	adiw	r30, 0x02	; 2
    26ea:	11 82       	std	Z+1, r1	; 0x01
    26ec:	10 82       	st	Z, r1
	cores[50*4+0] = ULTIMA_LEITURA[1][0];
    26ee:	80 91 01 02 	lds	r24, 0x0201
    26f2:	90 91 02 02 	lds	r25, 0x0202
    26f6:	ee 50       	subi	r30, 0x0E	; 14
    26f8:	ff 4f       	sbci	r31, 0xFF	; 255
    26fa:	91 83       	std	Z+1, r25	; 0x01
    26fc:	80 83       	st	Z, r24
	cores[50*4+1] = ULTIMA_LEITURA[1][1];
    26fe:	80 91 03 02 	lds	r24, 0x0203
    2702:	90 91 04 02 	lds	r25, 0x0204
    2706:	32 96       	adiw	r30, 0x02	; 2
    2708:	91 83       	std	Z+1, r25	; 0x01
    270a:	80 83       	st	Z, r24
	cores[50*4+2] = ULTIMA_LEITURA[1][2];
    270c:	80 91 05 02 	lds	r24, 0x0205
    2710:	90 91 06 02 	lds	r25, 0x0206
    2714:	32 96       	adiw	r30, 0x02	; 2
    2716:	91 83       	std	Z+1, r25	; 0x01
    2718:	80 83       	st	Z, r24
	cores[50*4+3] = 1;
    271a:	32 96       	adiw	r30, 0x02	; 2
    271c:	f1 82       	std	Z+1, r15	; 0x01
    271e:	e0 82       	st	Z, r14
	cores[23*4+0] = ULTIMA_LEITURA[2][0];
    2720:	80 91 09 02 	lds	r24, 0x0209
    2724:	90 91 0a 02 	lds	r25, 0x020A
    2728:	ee 5d       	subi	r30, 0xDE	; 222
    272a:	f1 09       	sbc	r31, r1
    272c:	91 83       	std	Z+1, r25	; 0x01
    272e:	80 83       	st	Z, r24
	cores[23*4+1] = ULTIMA_LEITURA[2][1];
    2730:	80 91 0b 02 	lds	r24, 0x020B
    2734:	90 91 0c 02 	lds	r25, 0x020C
    2738:	32 96       	adiw	r30, 0x02	; 2
    273a:	91 83       	std	Z+1, r25	; 0x01
    273c:	80 83       	st	Z, r24
	cores[23*4+2] = ULTIMA_LEITURA[2][2];
    273e:	80 91 0d 02 	lds	r24, 0x020D
    2742:	90 91 0e 02 	lds	r25, 0x020E
    2746:	32 96       	adiw	r30, 0x02	; 2
    2748:	91 83       	std	Z+1, r25	; 0x01
    274a:	80 83       	st	Z, r24
	cores[23*4+3] = 2;
    274c:	32 96       	adiw	r30, 0x02	; 2
    274e:	11 83       	std	Z+1, r17	; 0x01
    2750:	00 83       	st	Z, r16
    2752:	00 ef       	ldi	r16, 0xF0	; 240
    2754:	10 e0       	ldi	r17, 0x00	; 0
	for(int a=0;a<240;a++)passoROTHOR();
    2756:	0e 94 a1 09 	call	0x1342	; 0x1342 <passoROTHOR>
    275a:	01 50       	subi	r16, 0x01	; 1
    275c:	11 09       	sbc	r17, r1
    275e:	d9 f7       	brne	.-10     	; 0x2756 <leituraInicial+0xa32>
	soltaROT();
    2760:	0e 94 9c 09 	call	0x1338	; 0x1338 <soltaROT>
	translateTo(160);
    2764:	80 ea       	ldi	r24, 0xA0	; 160
    2766:	90 e0       	ldi	r25, 0x00	; 0
    2768:	0e 94 c7 0a 	call	0x158e	; 0x158e <translateTo>
	fazerLeituraCorBruto();
    276c:	0e 94 c7 0b 	call	0x178e	; 0x178e <fazerLeituraCorBruto>
	cores[16*4+0] = ULTIMA_LEITURA[0][0];
    2770:	80 91 f9 01 	lds	r24, 0x01F9
    2774:	90 91 fa 01 	lds	r25, 0x01FA
    2778:	fe 01       	movw	r30, r28
    277a:	e0 58       	subi	r30, 0x80	; 128
    277c:	ff 4f       	sbci	r31, 0xFF	; 255
    277e:	91 83       	std	Z+1, r25	; 0x01
    2780:	80 83       	st	Z, r24
	cores[16*4+1] = ULTIMA_LEITURA[0][1];
    2782:	80 91 fb 01 	lds	r24, 0x01FB
    2786:	90 91 fc 01 	lds	r25, 0x01FC
    278a:	32 96       	adiw	r30, 0x02	; 2
    278c:	91 83       	std	Z+1, r25	; 0x01
    278e:	80 83       	st	Z, r24
	cores[16*4+2] = ULTIMA_LEITURA[0][2];
    2790:	80 91 fd 01 	lds	r24, 0x01FD
    2794:	90 91 fe 01 	lds	r25, 0x01FE
    2798:	32 96       	adiw	r30, 0x02	; 2
    279a:	91 83       	std	Z+1, r25	; 0x01
    279c:	80 83       	st	Z, r24
	cores[16*4+3] = 0;
    279e:	32 96       	adiw	r30, 0x02	; 2
    27a0:	11 82       	std	Z+1, r1	; 0x01
    27a2:	10 82       	st	Z, r1
	cores[17*4+0] = ULTIMA_LEITURA[1][0];
    27a4:	80 91 01 02 	lds	r24, 0x0201
    27a8:	90 91 02 02 	lds	r25, 0x0202
    27ac:	32 96       	adiw	r30, 0x02	; 2
    27ae:	91 83       	std	Z+1, r25	; 0x01
    27b0:	80 83       	st	Z, r24
	cores[17*4+1] = ULTIMA_LEITURA[1][1];
    27b2:	80 91 03 02 	lds	r24, 0x0203
    27b6:	90 91 04 02 	lds	r25, 0x0204
    27ba:	32 96       	adiw	r30, 0x02	; 2
    27bc:	91 83       	std	Z+1, r25	; 0x01
    27be:	80 83       	st	Z, r24
	cores[17*4+2] = ULTIMA_LEITURA[1][2];
    27c0:	80 91 05 02 	lds	r24, 0x0205
    27c4:	90 91 06 02 	lds	r25, 0x0206
    27c8:	32 96       	adiw	r30, 0x02	; 2
    27ca:	91 83       	std	Z+1, r25	; 0x01
    27cc:	80 83       	st	Z, r24
	cores[17*4+3] = 1;
    27ce:	ee 24       	eor	r14, r14
    27d0:	e3 94       	inc	r14
    27d2:	f1 2c       	mov	r15, r1
    27d4:	32 96       	adiw	r30, 0x02	; 2
    27d6:	f1 82       	std	Z+1, r15	; 0x01
    27d8:	e0 82       	st	Z, r14
	cores[18*4+0] = ULTIMA_LEITURA[2][0];
    27da:	80 91 09 02 	lds	r24, 0x0209
    27de:	90 91 0a 02 	lds	r25, 0x020A
    27e2:	32 96       	adiw	r30, 0x02	; 2
    27e4:	91 83       	std	Z+1, r25	; 0x01
    27e6:	80 83       	st	Z, r24
	cores[18*4+1] = ULTIMA_LEITURA[2][1];
    27e8:	80 91 0b 02 	lds	r24, 0x020B
    27ec:	90 91 0c 02 	lds	r25, 0x020C
    27f0:	32 96       	adiw	r30, 0x02	; 2
    27f2:	91 83       	std	Z+1, r25	; 0x01
    27f4:	80 83       	st	Z, r24
	cores[18*4+2] = ULTIMA_LEITURA[2][2];
    27f6:	80 91 0d 02 	lds	r24, 0x020D
    27fa:	90 91 0e 02 	lds	r25, 0x020E
    27fe:	32 96       	adiw	r30, 0x02	; 2
    2800:	91 83       	std	Z+1, r25	; 0x01
    2802:	80 83       	st	Z, r24
	cores[18*4+3] = 2;
    2804:	02 e0       	ldi	r16, 0x02	; 2
    2806:	10 e0       	ldi	r17, 0x00	; 0
    2808:	32 96       	adiw	r30, 0x02	; 2
    280a:	11 83       	std	Z+1, r17	; 0x01
    280c:	00 83       	st	Z, r16
	translateTo(310);
    280e:	86 e3       	ldi	r24, 0x36	; 54
    2810:	91 e0       	ldi	r25, 0x01	; 1
    2812:	0e 94 c7 0a 	call	0x158e	; 0x158e <translateTo>
	//Leitura top---------------------------------------------------------------------------
	//putStr("TOP\n");
	tombaCubo();
    2816:	0e 94 35 0d 	call	0x1a6a	; 0x1a6a <tombaCubo>
	levantaBraco();
    281a:	0e 94 56 09 	call	0x12ac	; 0x12ac <levantaBraco>
	translateTo(160);
    281e:	80 ea       	ldi	r24, 0xA0	; 160
    2820:	90 e0       	ldi	r25, 0x00	; 0
    2822:	0e 94 c7 0a 	call	0x158e	; 0x158e <translateTo>
	soltaBraco();
    2826:	0e 94 7a 09 	call	0x12f4	; 0x12f4 <soltaBraco>
	fazerLeituraCorBruto();
    282a:	0e 94 c7 0b 	call	0x178e	; 0x178e <fazerLeituraCorBruto>
	cores[0*4+0] = ULTIMA_LEITURA[0][0];
    282e:	80 91 f9 01 	lds	r24, 0x01F9
    2832:	90 91 fa 01 	lds	r25, 0x01FA
    2836:	99 83       	std	Y+1, r25	; 0x01
    2838:	88 83       	st	Y, r24
	cores[0*4+1] = ULTIMA_LEITURA[0][1];
    283a:	80 91 fb 01 	lds	r24, 0x01FB
    283e:	90 91 fc 01 	lds	r25, 0x01FC
    2842:	9b 83       	std	Y+3, r25	; 0x03
    2844:	8a 83       	std	Y+2, r24	; 0x02
	cores[0*4+2] = ULTIMA_LEITURA[0][2];
    2846:	80 91 fd 01 	lds	r24, 0x01FD
    284a:	90 91 fe 01 	lds	r25, 0x01FE
    284e:	9d 83       	std	Y+5, r25	; 0x05
    2850:	8c 83       	std	Y+4, r24	; 0x04
	cores[0*4+3] = 0;
    2852:	1f 82       	std	Y+7, r1	; 0x07
    2854:	1e 82       	std	Y+6, r1	; 0x06
	cores[1*4+0] = ULTIMA_LEITURA[1][0];
    2856:	80 91 01 02 	lds	r24, 0x0201
    285a:	90 91 02 02 	lds	r25, 0x0202
    285e:	99 87       	std	Y+9, r25	; 0x09
    2860:	88 87       	std	Y+8, r24	; 0x08
	cores[1*4+1] = ULTIMA_LEITURA[1][1];
    2862:	80 91 03 02 	lds	r24, 0x0203
    2866:	90 91 04 02 	lds	r25, 0x0204
    286a:	9b 87       	std	Y+11, r25	; 0x0b
    286c:	8a 87       	std	Y+10, r24	; 0x0a
	cores[1*4+2] = ULTIMA_LEITURA[1][2];
    286e:	80 91 05 02 	lds	r24, 0x0205
    2872:	90 91 06 02 	lds	r25, 0x0206
    2876:	9d 87       	std	Y+13, r25	; 0x0d
    2878:	8c 87       	std	Y+12, r24	; 0x0c
	cores[1*4+3] = 1;
    287a:	ff 86       	std	Y+15, r15	; 0x0f
    287c:	ee 86       	std	Y+14, r14	; 0x0e
	cores[2*4+0] = ULTIMA_LEITURA[2][0];
    287e:	80 91 09 02 	lds	r24, 0x0209
    2882:	90 91 0a 02 	lds	r25, 0x020A
    2886:	99 8b       	std	Y+17, r25	; 0x11
    2888:	88 8b       	std	Y+16, r24	; 0x10
	cores[2*4+1] = ULTIMA_LEITURA[2][1];
    288a:	80 91 0b 02 	lds	r24, 0x020B
    288e:	90 91 0c 02 	lds	r25, 0x020C
    2892:	9b 8b       	std	Y+19, r25	; 0x13
    2894:	8a 8b       	std	Y+18, r24	; 0x12
	cores[2*4+2] = ULTIMA_LEITURA[2][2];
    2896:	80 91 0d 02 	lds	r24, 0x020D
    289a:	90 91 0e 02 	lds	r25, 0x020E
    289e:	9d 8b       	std	Y+21, r25	; 0x15
    28a0:	8c 8b       	std	Y+20, r24	; 0x14
	cores[2*4+3] = 2;
    28a2:	1f 8b       	std	Y+23, r17	; 0x17
    28a4:	0e 8b       	std	Y+22, r16	; 0x16
	translateTo(70);
    28a6:	86 e4       	ldi	r24, 0x46	; 70
    28a8:	90 e0       	ldi	r25, 0x00	; 0
    28aa:	0e 94 c7 0a 	call	0x158e	; 0x158e <translateTo>
	fazerLeituraCorBruto();
    28ae:	0e 94 c7 0b 	call	0x178e	; 0x178e <fazerLeituraCorBruto>
	cores[7*4+0] = ULTIMA_LEITURA[0][0];
    28b2:	80 91 f9 01 	lds	r24, 0x01F9
    28b6:	90 91 fa 01 	lds	r25, 0x01FA
    28ba:	99 af       	std	Y+57, r25	; 0x39
    28bc:	88 af       	std	Y+56, r24	; 0x38
	cores[7*4+1] = ULTIMA_LEITURA[0][1];
    28be:	80 91 fb 01 	lds	r24, 0x01FB
    28c2:	90 91 fc 01 	lds	r25, 0x01FC
    28c6:	9b af       	std	Y+59, r25	; 0x3b
    28c8:	8a af       	std	Y+58, r24	; 0x3a
	cores[7*4+2] = ULTIMA_LEITURA[0][2];
    28ca:	80 91 fd 01 	lds	r24, 0x01FD
    28ce:	90 91 fe 01 	lds	r25, 0x01FE
    28d2:	9d af       	std	Y+61, r25	; 0x3d
    28d4:	8c af       	std	Y+60, r24	; 0x3c
	cores[7*4+3] = 0;
    28d6:	1f ae       	std	Y+63, r1	; 0x3f
    28d8:	1e ae       	std	Y+62, r1	; 0x3e
	cores[48*4+0] = ULTIMA_LEITURA[1][0];
    28da:	80 91 01 02 	lds	r24, 0x0201
    28de:	90 91 02 02 	lds	r25, 0x0202
    28e2:	fe 01       	movw	r30, r28
    28e4:	e0 58       	subi	r30, 0x80	; 128
    28e6:	fe 4f       	sbci	r31, 0xFE	; 254
    28e8:	91 83       	std	Z+1, r25	; 0x01
    28ea:	80 83       	st	Z, r24
	cores[48*4+1] = ULTIMA_LEITURA[1][1];
    28ec:	80 91 03 02 	lds	r24, 0x0203
    28f0:	90 91 04 02 	lds	r25, 0x0204
    28f4:	32 96       	adiw	r30, 0x02	; 2
    28f6:	91 83       	std	Z+1, r25	; 0x01
    28f8:	80 83       	st	Z, r24
	cores[48*4+2] = ULTIMA_LEITURA[1][2];
    28fa:	80 91 05 02 	lds	r24, 0x0205
    28fe:	90 91 06 02 	lds	r25, 0x0206
    2902:	32 96       	adiw	r30, 0x02	; 2
    2904:	91 83       	std	Z+1, r25	; 0x01
    2906:	80 83       	st	Z, r24
	cores[48*4+3] = 1;
    2908:	32 96       	adiw	r30, 0x02	; 2
    290a:	f1 82       	std	Z+1, r15	; 0x01
    290c:	e0 82       	st	Z, r14
	cores[3*4+0] = ULTIMA_LEITURA[2][0];
    290e:	80 91 09 02 	lds	r24, 0x0209
    2912:	90 91 0a 02 	lds	r25, 0x020A
    2916:	99 8f       	std	Y+25, r25	; 0x19
    2918:	88 8f       	std	Y+24, r24	; 0x18
	cores[3*4+1] = ULTIMA_LEITURA[2][1];
    291a:	80 91 0b 02 	lds	r24, 0x020B
    291e:	90 91 0c 02 	lds	r25, 0x020C
    2922:	9b 8f       	std	Y+27, r25	; 0x1b
    2924:	8a 8f       	std	Y+26, r24	; 0x1a
	cores[3*4+2] = ULTIMA_LEITURA[2][2];
    2926:	80 91 0d 02 	lds	r24, 0x020D
    292a:	90 91 0e 02 	lds	r25, 0x020E
    292e:	9d 8f       	std	Y+29, r25	; 0x1d
    2930:	8c 8f       	std	Y+28, r24	; 0x1c
	cores[3*4+3] = 2;
    2932:	1f 8f       	std	Y+31, r17	; 0x1f
    2934:	0e 8f       	std	Y+30, r16	; 0x1e
    2936:	00 ef       	ldi	r16, 0xF0	; 240
    2938:	10 e0       	ldi	r17, 0x00	; 0
	for(int a=0;a<240;a++)passoROTHOR();
    293a:	0e 94 a1 09 	call	0x1342	; 0x1342 <passoROTHOR>
    293e:	01 50       	subi	r16, 0x01	; 1
    2940:	11 09       	sbc	r17, r1
    2942:	d9 f7       	brne	.-10     	; 0x293a <leituraInicial+0xc16>
	soltaROT();
    2944:	0e 94 9c 09 	call	0x1338	; 0x1338 <soltaROT>
	translateTo(160);
    2948:	80 ea       	ldi	r24, 0xA0	; 160
    294a:	90 e0       	ldi	r25, 0x00	; 0
    294c:	0e 94 c7 0a 	call	0x158e	; 0x158e <translateTo>
	fazerLeituraCorBruto();
    2950:	0e 94 c7 0b 	call	0x178e	; 0x178e <fazerLeituraCorBruto>
	cores[4*4+0] = ULTIMA_LEITURA[0][0];
    2954:	80 91 f9 01 	lds	r24, 0x01F9
    2958:	90 91 fa 01 	lds	r25, 0x01FA
    295c:	99 a3       	std	Y+33, r25	; 0x21
    295e:	88 a3       	std	Y+32, r24	; 0x20
	cores[4*4+1] = ULTIMA_LEITURA[0][1];
    2960:	80 91 fb 01 	lds	r24, 0x01FB
    2964:	90 91 fc 01 	lds	r25, 0x01FC
    2968:	9b a3       	std	Y+35, r25	; 0x23
    296a:	8a a3       	std	Y+34, r24	; 0x22
	cores[4*4+2] = ULTIMA_LEITURA[0][2];
    296c:	80 91 fd 01 	lds	r24, 0x01FD
    2970:	90 91 fe 01 	lds	r25, 0x01FE
    2974:	9d a3       	std	Y+37, r25	; 0x25
    2976:	8c a3       	std	Y+36, r24	; 0x24
	cores[4*4+3] = 0;
    2978:	1f a2       	std	Y+39, r1	; 0x27
    297a:	1e a2       	std	Y+38, r1	; 0x26
	cores[5*4+0] = ULTIMA_LEITURA[1][0];
    297c:	80 91 01 02 	lds	r24, 0x0201
    2980:	90 91 02 02 	lds	r25, 0x0202
    2984:	99 a7       	std	Y+41, r25	; 0x29
    2986:	88 a7       	std	Y+40, r24	; 0x28
	cores[5*4+1] = ULTIMA_LEITURA[1][1];
    2988:	80 91 03 02 	lds	r24, 0x0203
    298c:	90 91 04 02 	lds	r25, 0x0204
    2990:	9b a7       	std	Y+43, r25	; 0x2b
    2992:	8a a7       	std	Y+42, r24	; 0x2a
	cores[5*4+2] = ULTIMA_LEITURA[1][2];
    2994:	80 91 05 02 	lds	r24, 0x0205
    2998:	90 91 06 02 	lds	r25, 0x0206
    299c:	9d a7       	std	Y+45, r25	; 0x2d
    299e:	8c a7       	std	Y+44, r24	; 0x2c
	cores[5*4+3] = 1;
    29a0:	81 e0       	ldi	r24, 0x01	; 1
    29a2:	90 e0       	ldi	r25, 0x00	; 0
    29a4:	9f a7       	std	Y+47, r25	; 0x2f
    29a6:	8e a7       	std	Y+46, r24	; 0x2e
	cores[6*4+0] = ULTIMA_LEITURA[2][0];
    29a8:	80 91 09 02 	lds	r24, 0x0209
    29ac:	90 91 0a 02 	lds	r25, 0x020A
    29b0:	99 ab       	std	Y+49, r25	; 0x31
    29b2:	88 ab       	std	Y+48, r24	; 0x30
	cores[6*4+1] = ULTIMA_LEITURA[2][1];
    29b4:	80 91 0b 02 	lds	r24, 0x020B
    29b8:	90 91 0c 02 	lds	r25, 0x020C
    29bc:	9b ab       	std	Y+51, r25	; 0x33
    29be:	8a ab       	std	Y+50, r24	; 0x32
	cores[6*4+2] = ULTIMA_LEITURA[2][2];
    29c0:	80 91 0d 02 	lds	r24, 0x020D
    29c4:	90 91 0e 02 	lds	r25, 0x020E
    29c8:	9d ab       	std	Y+53, r25	; 0x35
    29ca:	8c ab       	std	Y+52, r24	; 0x34
	cores[6*4+3] = 2;
    29cc:	82 e0       	ldi	r24, 0x02	; 2
    29ce:	90 e0       	ldi	r25, 0x00	; 0
    29d0:	9f ab       	std	Y+55, r25	; 0x37
    29d2:	8e ab       	std	Y+54, r24	; 0x36
	translateTo(310);
    29d4:	86 e3       	ldi	r24, 0x36	; 54
    29d6:	91 e0       	ldi	r25, 0x01	; 1
    29d8:	0e 94 c7 0a 	call	0x158e	; 0x158e <translateTo>
	translateTo(275);
    29dc:	83 e1       	ldi	r24, 0x13	; 19
    29de:	91 e0       	ldi	r25, 0x01	; 1
	//putStr("FIM_LEITURA\n");
}
    29e0:	df 91       	pop	r29
    29e2:	cf 91       	pop	r28
    29e4:	1f 91       	pop	r17
    29e6:	0f 91       	pop	r16
    29e8:	ff 90       	pop	r15
    29ea:	ef 90       	pop	r14
	cores[6*4+0] = ULTIMA_LEITURA[2][0];
	cores[6*4+1] = ULTIMA_LEITURA[2][1];
	cores[6*4+2] = ULTIMA_LEITURA[2][2];
	cores[6*4+3] = 2;
	translateTo(310);
	translateTo(275);
    29ec:	0c 94 c7 0a 	jmp	0x158e	; 0x158e <translateTo>

000029f0 <autoAjustar>:
	//putStr("FIM_LEITURA\n");
}
uint16_t CALIB[2][3][3];//[MAX,min][R,G,B][sens1,sens2,sens3]
void autoAjustar(uint16_t *cores){
    29f0:	0f 93       	push	r16
    29f2:	1f 93       	push	r17
    29f4:	cf 93       	push	r28
    29f6:	df 93       	push	r29
	CALIB[0][0][0] = 1024;CALIB[0][0][1] = 1024;CALIB[0][0][2] = 1024;
    29f8:	20 e0       	ldi	r18, 0x00	; 0
    29fa:	34 e0       	ldi	r19, 0x04	; 4
    29fc:	30 93 c0 01 	sts	0x01C0, r19
    2a00:	20 93 bf 01 	sts	0x01BF, r18
    2a04:	30 93 c2 01 	sts	0x01C2, r19
    2a08:	20 93 c1 01 	sts	0x01C1, r18
    2a0c:	30 93 c4 01 	sts	0x01C4, r19
    2a10:	20 93 c3 01 	sts	0x01C3, r18
	CALIB[0][1][0] = 1024;CALIB[0][1][1] = 1024;CALIB[0][1][2] = 1024;
    2a14:	30 93 c6 01 	sts	0x01C6, r19
    2a18:	20 93 c5 01 	sts	0x01C5, r18
    2a1c:	30 93 c8 01 	sts	0x01C8, r19
    2a20:	20 93 c7 01 	sts	0x01C7, r18
    2a24:	30 93 ca 01 	sts	0x01CA, r19
    2a28:	20 93 c9 01 	sts	0x01C9, r18
	CALIB[0][2][0] = 1024;CALIB[0][2][1] = 1024;CALIB[0][2][2] = 1024;
    2a2c:	30 93 cc 01 	sts	0x01CC, r19
    2a30:	20 93 cb 01 	sts	0x01CB, r18
    2a34:	30 93 ce 01 	sts	0x01CE, r19
    2a38:	20 93 cd 01 	sts	0x01CD, r18
    2a3c:	30 93 d0 01 	sts	0x01D0, r19
    2a40:	20 93 cf 01 	sts	0x01CF, r18
	CALIB[1][0][0] = 0;CALIB[1][0][1] = 0;CALIB[1][0][2] = 0;
    2a44:	10 92 d2 01 	sts	0x01D2, r1
    2a48:	10 92 d1 01 	sts	0x01D1, r1
    2a4c:	10 92 d4 01 	sts	0x01D4, r1
    2a50:	10 92 d3 01 	sts	0x01D3, r1
    2a54:	10 92 d6 01 	sts	0x01D6, r1
    2a58:	10 92 d5 01 	sts	0x01D5, r1
	CALIB[1][1][0] = 0;CALIB[1][1][1] = 0;CALIB[1][1][2] = 0;
    2a5c:	10 92 d8 01 	sts	0x01D8, r1
    2a60:	10 92 d7 01 	sts	0x01D7, r1
    2a64:	10 92 da 01 	sts	0x01DA, r1
    2a68:	10 92 d9 01 	sts	0x01D9, r1
    2a6c:	10 92 dc 01 	sts	0x01DC, r1
    2a70:	10 92 db 01 	sts	0x01DB, r1
	CALIB[1][2][0] = 0;CALIB[1][2][1] = 0;CALIB[1][2][2] = 0;
    2a74:	10 92 de 01 	sts	0x01DE, r1
    2a78:	10 92 dd 01 	sts	0x01DD, r1
    2a7c:	10 92 e0 01 	sts	0x01E0, r1
    2a80:	10 92 df 01 	sts	0x01DF, r1
    2a84:	10 92 e2 01 	sts	0x01E2, r1
    2a88:	10 92 e1 01 	sts	0x01E1, r1
    2a8c:	ec 01       	movw	r28, r24
    2a8e:	8c 01       	movw	r16, r24
    2a90:	00 55       	subi	r16, 0x50	; 80
    2a92:	1e 4f       	sbci	r17, 0xFE	; 254
    2a94:	fc 01       	movw	r30, r24
	for(int a=0;a<54;a++){
		if(cores[a*4+0]>CALIB[1][0][cores[a*4+3]])CALIB[1][0][cores[a*4+3]] = cores[a*4+0];
    2a96:	80 81       	ld	r24, Z
    2a98:	91 81       	ldd	r25, Z+1	; 0x01
    2a9a:	a6 81       	ldd	r26, Z+6	; 0x06
    2a9c:	b7 81       	ldd	r27, Z+7	; 0x07
    2a9e:	aa 0f       	add	r26, r26
    2aa0:	bb 1f       	adc	r27, r27
    2aa2:	af 52       	subi	r26, 0x2F	; 47
    2aa4:	be 4f       	sbci	r27, 0xFE	; 254
    2aa6:	2d 91       	ld	r18, X+
    2aa8:	3c 91       	ld	r19, X
    2aaa:	11 97       	sbiw	r26, 0x01	; 1
    2aac:	28 17       	cp	r18, r24
    2aae:	39 07       	cpc	r19, r25
    2ab0:	10 f4       	brcc	.+4      	; 0x2ab6 <autoAjustar+0xc6>
    2ab2:	8d 93       	st	X+, r24
    2ab4:	9c 93       	st	X, r25
		if(cores[a*4+1]>CALIB[1][1][cores[a*4+3]])CALIB[1][1][cores[a*4+3]] = cores[a*4+1];
    2ab6:	82 81       	ldd	r24, Z+2	; 0x02
    2ab8:	93 81       	ldd	r25, Z+3	; 0x03
    2aba:	a6 81       	ldd	r26, Z+6	; 0x06
    2abc:	b7 81       	ldd	r27, Z+7	; 0x07
    2abe:	aa 0f       	add	r26, r26
    2ac0:	bb 1f       	adc	r27, r27
    2ac2:	a9 52       	subi	r26, 0x29	; 41
    2ac4:	be 4f       	sbci	r27, 0xFE	; 254
    2ac6:	2d 91       	ld	r18, X+
    2ac8:	3c 91       	ld	r19, X
    2aca:	11 97       	sbiw	r26, 0x01	; 1
    2acc:	28 17       	cp	r18, r24
    2ace:	39 07       	cpc	r19, r25
    2ad0:	10 f4       	brcc	.+4      	; 0x2ad6 <autoAjustar+0xe6>
    2ad2:	8d 93       	st	X+, r24
    2ad4:	9c 93       	st	X, r25
		if(cores[a*4+2]>CALIB[1][2][cores[a*4+3]])CALIB[1][2][cores[a*4+3]] = cores[a*4+2];
    2ad6:	84 81       	ldd	r24, Z+4	; 0x04
    2ad8:	95 81       	ldd	r25, Z+5	; 0x05
    2ada:	a6 81       	ldd	r26, Z+6	; 0x06
    2adc:	b7 81       	ldd	r27, Z+7	; 0x07
    2ade:	aa 0f       	add	r26, r26
    2ae0:	bb 1f       	adc	r27, r27
    2ae2:	a3 52       	subi	r26, 0x23	; 35
    2ae4:	be 4f       	sbci	r27, 0xFE	; 254
    2ae6:	2d 91       	ld	r18, X+
    2ae8:	3c 91       	ld	r19, X
    2aea:	11 97       	sbiw	r26, 0x01	; 1
    2aec:	28 17       	cp	r18, r24
    2aee:	39 07       	cpc	r19, r25
    2af0:	10 f4       	brcc	.+4      	; 0x2af6 <autoAjustar+0x106>
    2af2:	8d 93       	st	X+, r24
    2af4:	9c 93       	st	X, r25
		if(cores[a*4+0]<CALIB[0][0][cores[a*4+3]])CALIB[0][0][cores[a*4+3]] = cores[a*4+0];
    2af6:	80 81       	ld	r24, Z
    2af8:	91 81       	ldd	r25, Z+1	; 0x01
    2afa:	a6 81       	ldd	r26, Z+6	; 0x06
    2afc:	b7 81       	ldd	r27, Z+7	; 0x07
    2afe:	aa 0f       	add	r26, r26
    2b00:	bb 1f       	adc	r27, r27
    2b02:	a1 54       	subi	r26, 0x41	; 65
    2b04:	be 4f       	sbci	r27, 0xFE	; 254
    2b06:	2d 91       	ld	r18, X+
    2b08:	3c 91       	ld	r19, X
    2b0a:	11 97       	sbiw	r26, 0x01	; 1
    2b0c:	82 17       	cp	r24, r18
    2b0e:	93 07       	cpc	r25, r19
    2b10:	10 f4       	brcc	.+4      	; 0x2b16 <autoAjustar+0x126>
    2b12:	8d 93       	st	X+, r24
    2b14:	9c 93       	st	X, r25
		if(cores[a*4+1]<CALIB[0][1][cores[a*4+3]])CALIB[0][1][cores[a*4+3]] = cores[a*4+1];
    2b16:	82 81       	ldd	r24, Z+2	; 0x02
    2b18:	93 81       	ldd	r25, Z+3	; 0x03
    2b1a:	a6 81       	ldd	r26, Z+6	; 0x06
    2b1c:	b7 81       	ldd	r27, Z+7	; 0x07
    2b1e:	aa 0f       	add	r26, r26
    2b20:	bb 1f       	adc	r27, r27
    2b22:	ab 53       	subi	r26, 0x3B	; 59
    2b24:	be 4f       	sbci	r27, 0xFE	; 254
    2b26:	2d 91       	ld	r18, X+
    2b28:	3c 91       	ld	r19, X
    2b2a:	11 97       	sbiw	r26, 0x01	; 1
    2b2c:	82 17       	cp	r24, r18
    2b2e:	93 07       	cpc	r25, r19
    2b30:	10 f4       	brcc	.+4      	; 0x2b36 <autoAjustar+0x146>
    2b32:	8d 93       	st	X+, r24
    2b34:	9c 93       	st	X, r25
		if(cores[a*4+2]<CALIB[0][2][cores[a*4+3]])CALIB[0][2][cores[a*4+3]] = cores[a*4+2];
    2b36:	84 81       	ldd	r24, Z+4	; 0x04
    2b38:	95 81       	ldd	r25, Z+5	; 0x05
    2b3a:	a6 81       	ldd	r26, Z+6	; 0x06
    2b3c:	b7 81       	ldd	r27, Z+7	; 0x07
    2b3e:	aa 0f       	add	r26, r26
    2b40:	bb 1f       	adc	r27, r27
    2b42:	a5 53       	subi	r26, 0x35	; 53
    2b44:	be 4f       	sbci	r27, 0xFE	; 254
    2b46:	2d 91       	ld	r18, X+
    2b48:	3c 91       	ld	r19, X
    2b4a:	11 97       	sbiw	r26, 0x01	; 1
    2b4c:	82 17       	cp	r24, r18
    2b4e:	93 07       	cpc	r25, r19
    2b50:	10 f4       	brcc	.+4      	; 0x2b56 <autoAjustar+0x166>
    2b52:	8d 93       	st	X+, r24
    2b54:	9c 93       	st	X, r25
    2b56:	38 96       	adiw	r30, 0x08	; 8
	CALIB[0][1][0] = 1024;CALIB[0][1][1] = 1024;CALIB[0][1][2] = 1024;
	CALIB[0][2][0] = 1024;CALIB[0][2][1] = 1024;CALIB[0][2][2] = 1024;
	CALIB[1][0][0] = 0;CALIB[1][0][1] = 0;CALIB[1][0][2] = 0;
	CALIB[1][1][0] = 0;CALIB[1][1][1] = 0;CALIB[1][1][2] = 0;
	CALIB[1][2][0] = 0;CALIB[1][2][1] = 0;CALIB[1][2][2] = 0;
	for(int a=0;a<54;a++){
    2b58:	e0 17       	cp	r30, r16
    2b5a:	f1 07       	cpc	r31, r17
    2b5c:	09 f0       	breq	.+2      	; 0x2b60 <autoAjustar+0x170>
    2b5e:	9b cf       	rjmp	.-202    	; 0x2a96 <autoAjustar+0xa6>
    2b60:	2e 81       	ldd	r18, Y+6	; 0x06
    2b62:	3f 81       	ldd	r19, Y+7	; 0x07
    2b64:	33 27       	eor	r19, r19
		if(cores[a*4+1]<CALIB[0][1][cores[a*4+3]])CALIB[0][1][cores[a*4+3]] = cores[a*4+1];
		if(cores[a*4+2]<CALIB[0][2][cores[a*4+3]])CALIB[0][2][cores[a*4+3]] = cores[a*4+2];
	}
	for(int a=0;a<54;a++){
		uint8_t b = cores[a*4+3];
		cores[a*4+0] = ((CALIB[1][0][b]-cores[a*4+0])<<8)/(CALIB[1][0][b]-CALIB[0][0][b]);
    2b66:	f9 01       	movw	r30, r18
    2b68:	ee 0f       	add	r30, r30
    2b6a:	ff 1f       	adc	r31, r31
    2b6c:	ef 52       	subi	r30, 0x2F	; 47
    2b6e:	fe 4f       	sbci	r31, 0xFE	; 254
    2b70:	60 81       	ld	r22, Z
    2b72:	71 81       	ldd	r23, Z+1	; 0x01
    2b74:	88 81       	ld	r24, Y
    2b76:	99 81       	ldd	r25, Y+1	; 0x01
    2b78:	ab 01       	movw	r20, r22
    2b7a:	48 1b       	sub	r20, r24
    2b7c:	59 0b       	sbc	r21, r25
    2b7e:	94 2f       	mov	r25, r20
    2b80:	f9 01       	movw	r30, r18
    2b82:	ee 0f       	add	r30, r30
    2b84:	ff 1f       	adc	r31, r31
    2b86:	e1 54       	subi	r30, 0x41	; 65
    2b88:	fe 4f       	sbci	r31, 0xFE	; 254
    2b8a:	40 81       	ld	r20, Z
    2b8c:	51 81       	ldd	r21, Z+1	; 0x01
    2b8e:	64 1b       	sub	r22, r20
    2b90:	75 0b       	sbc	r23, r21
    2b92:	80 e0       	ldi	r24, 0x00	; 0
    2b94:	0e 94 f4 24 	call	0x49e8	; 0x49e8 <__udivmodhi4>
    2b98:	79 83       	std	Y+1, r23	; 0x01
    2b9a:	68 83       	st	Y, r22
		cores[a*4+1] = ((CALIB[1][1][b]-cores[a*4+1])<<8)/(CALIB[1][1][b]-CALIB[0][1][b]);
    2b9c:	f9 01       	movw	r30, r18
    2b9e:	ee 0f       	add	r30, r30
    2ba0:	ff 1f       	adc	r31, r31
    2ba2:	e9 52       	subi	r30, 0x29	; 41
    2ba4:	fe 4f       	sbci	r31, 0xFE	; 254
    2ba6:	60 81       	ld	r22, Z
    2ba8:	71 81       	ldd	r23, Z+1	; 0x01
    2baa:	8a 81       	ldd	r24, Y+2	; 0x02
    2bac:	9b 81       	ldd	r25, Y+3	; 0x03
    2bae:	ab 01       	movw	r20, r22
    2bb0:	48 1b       	sub	r20, r24
    2bb2:	59 0b       	sbc	r21, r25
    2bb4:	94 2f       	mov	r25, r20
    2bb6:	f9 01       	movw	r30, r18
    2bb8:	ee 0f       	add	r30, r30
    2bba:	ff 1f       	adc	r31, r31
    2bbc:	eb 53       	subi	r30, 0x3B	; 59
    2bbe:	fe 4f       	sbci	r31, 0xFE	; 254
    2bc0:	40 81       	ld	r20, Z
    2bc2:	51 81       	ldd	r21, Z+1	; 0x01
    2bc4:	64 1b       	sub	r22, r20
    2bc6:	75 0b       	sbc	r23, r21
    2bc8:	80 e0       	ldi	r24, 0x00	; 0
    2bca:	0e 94 f4 24 	call	0x49e8	; 0x49e8 <__udivmodhi4>
    2bce:	7b 83       	std	Y+3, r23	; 0x03
    2bd0:	6a 83       	std	Y+2, r22	; 0x02
		cores[a*4+2] = ((CALIB[1][2][b]-cores[a*4+2])<<8)/(CALIB[1][2][b]-CALIB[0][2][b]);
    2bd2:	f9 01       	movw	r30, r18
    2bd4:	ee 0f       	add	r30, r30
    2bd6:	ff 1f       	adc	r31, r31
    2bd8:	e3 52       	subi	r30, 0x23	; 35
    2bda:	fe 4f       	sbci	r31, 0xFE	; 254
    2bdc:	60 81       	ld	r22, Z
    2bde:	71 81       	ldd	r23, Z+1	; 0x01
    2be0:	8c 81       	ldd	r24, Y+4	; 0x04
    2be2:	9d 81       	ldd	r25, Y+5	; 0x05
    2be4:	ab 01       	movw	r20, r22
    2be6:	48 1b       	sub	r20, r24
    2be8:	59 0b       	sbc	r21, r25
    2bea:	94 2f       	mov	r25, r20
    2bec:	22 0f       	add	r18, r18
    2bee:	33 1f       	adc	r19, r19
    2bf0:	f9 01       	movw	r30, r18
    2bf2:	e5 53       	subi	r30, 0x35	; 53
    2bf4:	fe 4f       	sbci	r31, 0xFE	; 254
    2bf6:	20 81       	ld	r18, Z
    2bf8:	31 81       	ldd	r19, Z+1	; 0x01
    2bfa:	62 1b       	sub	r22, r18
    2bfc:	73 0b       	sbc	r23, r19
    2bfe:	80 e0       	ldi	r24, 0x00	; 0
    2c00:	0e 94 f4 24 	call	0x49e8	; 0x49e8 <__udivmodhi4>
    2c04:	7d 83       	std	Y+5, r23	; 0x05
    2c06:	6c 83       	std	Y+4, r22	; 0x04
    2c08:	28 96       	adiw	r28, 0x08	; 8
		if(cores[a*4+2]>CALIB[1][2][cores[a*4+3]])CALIB[1][2][cores[a*4+3]] = cores[a*4+2];
		if(cores[a*4+0]<CALIB[0][0][cores[a*4+3]])CALIB[0][0][cores[a*4+3]] = cores[a*4+0];
		if(cores[a*4+1]<CALIB[0][1][cores[a*4+3]])CALIB[0][1][cores[a*4+3]] = cores[a*4+1];
		if(cores[a*4+2]<CALIB[0][2][cores[a*4+3]])CALIB[0][2][cores[a*4+3]] = cores[a*4+2];
	}
	for(int a=0;a<54;a++){
    2c0a:	c0 17       	cp	r28, r16
    2c0c:	d1 07       	cpc	r29, r17
    2c0e:	09 f0       	breq	.+2      	; 0x2c12 <autoAjustar+0x222>
    2c10:	a7 cf       	rjmp	.-178    	; 0x2b60 <autoAjustar+0x170>
		uint8_t b = cores[a*4+3];
		cores[a*4+0] = ((CALIB[1][0][b]-cores[a*4+0])<<8)/(CALIB[1][0][b]-CALIB[0][0][b]);
		cores[a*4+1] = ((CALIB[1][1][b]-cores[a*4+1])<<8)/(CALIB[1][1][b]-CALIB[0][1][b]);
		cores[a*4+2] = ((CALIB[1][2][b]-cores[a*4+2])<<8)/(CALIB[1][2][b]-CALIB[0][2][b]);
	}
}
    2c12:	df 91       	pop	r29
    2c14:	cf 91       	pop	r28
    2c16:	1f 91       	pop	r17
    2c18:	0f 91       	pop	r16
    2c1a:	08 95       	ret

00002c1c <printColor>:
		}
	}
	return 1;
	
}
void printColor(uint16_t *cores){
    2c1c:	cf 92       	push	r12
    2c1e:	df 92       	push	r13
    2c20:	ef 92       	push	r14
    2c22:	ff 92       	push	r15
    2c24:	cf 93       	push	r28
    2c26:	df 93       	push	r29
    2c28:	ec 01       	movw	r28, r24
    2c2a:	c1 2c       	mov	r12, r1
    2c2c:	d1 2c       	mov	r13, r1
    2c2e:	76 01       	movw	r14, r12
	for(int a=0;a<54;a++){
		printInt(a);
    2c30:	c7 01       	movw	r24, r14
    2c32:	b6 01       	movw	r22, r12
    2c34:	0e 94 a3 08 	call	0x1146	; 0x1146 <printInt>
		putch('=');
    2c38:	8d e3       	ldi	r24, 0x3D	; 61
    2c3a:	0e 94 6e 08 	call	0x10dc	; 0x10dc <putch>
		printInt(cores[a*4+0]);
    2c3e:	68 81       	ld	r22, Y
    2c40:	79 81       	ldd	r23, Y+1	; 0x01
    2c42:	80 e0       	ldi	r24, 0x00	; 0
    2c44:	90 e0       	ldi	r25, 0x00	; 0
    2c46:	0e 94 a3 08 	call	0x1146	; 0x1146 <printInt>
		putch(',');
    2c4a:	8c e2       	ldi	r24, 0x2C	; 44
    2c4c:	0e 94 6e 08 	call	0x10dc	; 0x10dc <putch>
		printInt(cores[a*4+1]);
    2c50:	6a 81       	ldd	r22, Y+2	; 0x02
    2c52:	7b 81       	ldd	r23, Y+3	; 0x03
    2c54:	80 e0       	ldi	r24, 0x00	; 0
    2c56:	90 e0       	ldi	r25, 0x00	; 0
    2c58:	0e 94 a3 08 	call	0x1146	; 0x1146 <printInt>
		putch(',');
    2c5c:	8c e2       	ldi	r24, 0x2C	; 44
    2c5e:	0e 94 6e 08 	call	0x10dc	; 0x10dc <putch>
		printInt(cores[a*4+2]);
    2c62:	6c 81       	ldd	r22, Y+4	; 0x04
    2c64:	7d 81       	ldd	r23, Y+5	; 0x05
    2c66:	80 e0       	ldi	r24, 0x00	; 0
    2c68:	90 e0       	ldi	r25, 0x00	; 0
    2c6a:	0e 94 a3 08 	call	0x1146	; 0x1146 <printInt>
		putch('\n');
    2c6e:	8a e0       	ldi	r24, 0x0A	; 10
    2c70:	0e 94 6e 08 	call	0x10dc	; 0x10dc <putch>
	#else
		//round up by default
		__ticks_dc = (uint32_t)(ceil(fabs(__tmp)));
	#endif

	__builtin_avr_delay_cycles(__ticks_dc);
    2c74:	2f e7       	ldi	r18, 0x7F	; 127
    2c76:	88 e3       	ldi	r24, 0x38	; 56
    2c78:	91 e0       	ldi	r25, 0x01	; 1
    2c7a:	21 50       	subi	r18, 0x01	; 1
    2c7c:	80 40       	sbci	r24, 0x00	; 0
    2c7e:	90 40       	sbci	r25, 0x00	; 0
    2c80:	e1 f7       	brne	.-8      	; 0x2c7a <printColor+0x5e>
    2c82:	00 c0       	rjmp	.+0      	; 0x2c84 <printColor+0x68>
    2c84:	00 00       	nop
    2c86:	2f ef       	ldi	r18, 0xFF	; 255
    2c88:	c2 1a       	sub	r12, r18
    2c8a:	d2 0a       	sbc	r13, r18
    2c8c:	e2 0a       	sbc	r14, r18
    2c8e:	f2 0a       	sbc	r15, r18
    2c90:	28 96       	adiw	r28, 0x08	; 8
	}
	return 1;
	
}
void printColor(uint16_t *cores){
	for(int a=0;a<54;a++){
    2c92:	86 e3       	ldi	r24, 0x36	; 54
    2c94:	c8 16       	cp	r12, r24
    2c96:	d1 04       	cpc	r13, r1
    2c98:	e1 04       	cpc	r14, r1
    2c9a:	f1 04       	cpc	r15, r1
    2c9c:	49 f6       	brne	.-110    	; 0x2c30 <printColor+0x14>
		putch(',');
		printInt(cores[a*4+2]);
		putch('\n');
		_delay_ms(50);
	}
}
    2c9e:	df 91       	pop	r29
    2ca0:	cf 91       	pop	r28
    2ca2:	ff 90       	pop	r15
    2ca4:	ef 90       	pop	r14
    2ca6:	df 90       	pop	r13
    2ca8:	cf 90       	pop	r12
    2caa:	08 95       	ret

00002cac <achaMenorDistancia>:
void achaMenorDistancia(int16_t *cores, uint8_t *resultado){
    2cac:	2f 92       	push	r2
    2cae:	3f 92       	push	r3
    2cb0:	4f 92       	push	r4
    2cb2:	5f 92       	push	r5
    2cb4:	6f 92       	push	r6
    2cb6:	7f 92       	push	r7
    2cb8:	8f 92       	push	r8
    2cba:	9f 92       	push	r9
    2cbc:	af 92       	push	r10
    2cbe:	bf 92       	push	r11
    2cc0:	cf 92       	push	r12
    2cc2:	df 92       	push	r13
    2cc4:	ef 92       	push	r14
    2cc6:	ff 92       	push	r15
    2cc8:	0f 93       	push	r16
    2cca:	1f 93       	push	r17
    2ccc:	cf 93       	push	r28
    2cce:	df 93       	push	r29
    2cd0:	cd b7       	in	r28, 0x3d	; 61
    2cd2:	de b7       	in	r29, 0x3e	; 62
    2cd4:	6e 97       	sbiw	r28, 0x1e	; 30
    2cd6:	0f b6       	in	r0, 0x3f	; 63
    2cd8:	f8 94       	cli
    2cda:	de bf       	out	0x3e, r29	; 62
    2cdc:	0f be       	out	0x3f, r0	; 63
    2cde:	cd bf       	out	0x3d, r28	; 61
    2ce0:	fc 01       	movw	r30, r24
    2ce2:	8b 01       	movw	r16, r22
    2ce4:	7c 01       	movw	r14, r24
    2ce6:	80 e8       	ldi	r24, 0x80	; 128
    2ce8:	e8 1a       	sub	r14, r24
    2cea:	8e ef       	ldi	r24, 0xFE	; 254
    2cec:	f8 0a       	sbc	r15, r24
    2cee:	1f 01       	movw	r2, r30
    2cf0:	90 e5       	ldi	r25, 0x50	; 80
    2cf2:	29 1a       	sub	r2, r25
    2cf4:	9e ef       	ldi	r25, 0xFE	; 254
    2cf6:	39 0a       	sbc	r3, r25
	//Distancia direta
	for(int a=0;a<8*6;a++){
		uint32_t distancias[6], menor;
		for(int b=0;b<6;b++){
			int32_t x, y, z;
			x = cores[a*4+0]-cores[(48+b)*4+0];
    2cf8:	80 81       	ld	r24, Z
    2cfa:	91 81       	ldd	r25, Z+1	; 0x01
    2cfc:	9a 8f       	std	Y+26, r25	; 0x1a
    2cfe:	89 8f       	std	Y+25, r24	; 0x19
			y = cores[a*4+1]-cores[(48+b)*4+1];
    2d00:	a2 81       	ldd	r26, Z+2	; 0x02
    2d02:	b3 81       	ldd	r27, Z+3	; 0x03
    2d04:	bc 8f       	std	Y+28, r27	; 0x1c
    2d06:	ab 8f       	std	Y+27, r26	; 0x1b
			z = cores[a*4+2]-cores[(48+b)*4+2];
    2d08:	84 81       	ldd	r24, Z+4	; 0x04
    2d0a:	95 81       	ldd	r25, Z+5	; 0x05
    2d0c:	9e 8f       	std	Y+30, r25	; 0x1e
    2d0e:	8d 8f       	std	Y+29, r24	; 0x1d
    2d10:	de 01       	movw	r26, r28
    2d12:	11 96       	adiw	r26, 0x01	; 1
    2d14:	6d 01       	movw	r12, r26
    2d16:	a7 01       	movw	r20, r14
	//Distancia direta
	for(int a=0;a<8*6;a++){
		uint32_t distancias[6], menor;
		for(int b=0;b<6;b++){
			int32_t x, y, z;
			x = cores[a*4+0]-cores[(48+b)*4+0];
    2d18:	da 01       	movw	r26, r20
    2d1a:	8d 91       	ld	r24, X+
    2d1c:	9c 91       	ld	r25, X
    2d1e:	11 97       	sbiw	r26, 0x01	; 1
    2d20:	69 8d       	ldd	r22, Y+25	; 0x19
    2d22:	7a 8d       	ldd	r23, Y+26	; 0x1a
    2d24:	68 1b       	sub	r22, r24
    2d26:	79 0b       	sbc	r23, r25
			y = cores[a*4+1]-cores[(48+b)*4+1];
    2d28:	12 96       	adiw	r26, 0x02	; 2
    2d2a:	8d 91       	ld	r24, X+
    2d2c:	9c 91       	ld	r25, X
    2d2e:	13 97       	sbiw	r26, 0x03	; 3
    2d30:	8b 8c       	ldd	r8, Y+27	; 0x1b
    2d32:	9c 8c       	ldd	r9, Y+28	; 0x1c
    2d34:	88 1a       	sub	r8, r24
    2d36:	99 0a       	sbc	r9, r25
			z = cores[a*4+2]-cores[(48+b)*4+2];
    2d38:	14 96       	adiw	r26, 0x04	; 4
    2d3a:	8d 91       	ld	r24, X+
    2d3c:	9c 91       	ld	r25, X
    2d3e:	15 97       	sbiw	r26, 0x05	; 5
    2d40:	ad 8c       	ldd	r10, Y+29	; 0x1d
    2d42:	be 8c       	ldd	r11, Y+30	; 0x1e
    2d44:	a8 1a       	sub	r10, r24
    2d46:	b9 0a       	sbc	r11, r25
			distancias[b] = x*x+y*y+z*z;
    2d48:	9b 01       	movw	r18, r22
    2d4a:	db 01       	movw	r26, r22
    2d4c:	0e 94 4f 25 	call	0x4a9e	; 0x4a9e <__mulhisi3>
    2d50:	2b 01       	movw	r4, r22
    2d52:	3c 01       	movw	r6, r24
    2d54:	94 01       	movw	r18, r8
    2d56:	d4 01       	movw	r26, r8
    2d58:	0e 94 4f 25 	call	0x4a9e	; 0x4a9e <__mulhisi3>
    2d5c:	46 0e       	add	r4, r22
    2d5e:	57 1e       	adc	r5, r23
    2d60:	68 1e       	adc	r6, r24
    2d62:	79 1e       	adc	r7, r25
    2d64:	95 01       	movw	r18, r10
    2d66:	d5 01       	movw	r26, r10
    2d68:	0e 94 4f 25 	call	0x4a9e	; 0x4a9e <__mulhisi3>
    2d6c:	46 0e       	add	r4, r22
    2d6e:	57 1e       	adc	r5, r23
    2d70:	68 1e       	adc	r6, r24
    2d72:	79 1e       	adc	r7, r25
    2d74:	d6 01       	movw	r26, r12
    2d76:	4d 92       	st	X+, r4
    2d78:	5d 92       	st	X+, r5
    2d7a:	6d 92       	st	X+, r6
    2d7c:	7d 92       	st	X+, r7
    2d7e:	6d 01       	movw	r12, r26
    2d80:	48 5f       	subi	r20, 0xF8	; 248
    2d82:	5f 4f       	sbci	r21, 0xFF	; 255
}
void achaMenorDistancia(int16_t *cores, uint8_t *resultado){
	//Distancia direta
	for(int a=0;a<8*6;a++){
		uint32_t distancias[6], menor;
		for(int b=0;b<6;b++){
    2d84:	42 15       	cp	r20, r2
    2d86:	53 05       	cpc	r21, r3
    2d88:	39 f6       	brne	.-114    	; 0x2d18 <achaMenorDistancia+0x6c>
			x = cores[a*4+0]-cores[(48+b)*4+0];
			y = cores[a*4+1]-cores[(48+b)*4+1];
			z = cores[a*4+2]-cores[(48+b)*4+2];
			distancias[b] = x*x+y*y+z*z;
		}
		resultado[a] = 0;
    2d8a:	d8 01       	movw	r26, r16
    2d8c:	1c 92       	st	X, r1
		menor = distancias[0];
    2d8e:	49 81       	ldd	r20, Y+1	; 0x01
    2d90:	5a 81       	ldd	r21, Y+2	; 0x02
    2d92:	6b 81       	ldd	r22, Y+3	; 0x03
    2d94:	7c 81       	ldd	r23, Y+4	; 0x04
    2d96:	9e 01       	movw	r18, r28
    2d98:	2b 5f       	subi	r18, 0xFB	; 251
    2d9a:	3f 4f       	sbci	r19, 0xFF	; 255
    2d9c:	81 e0       	ldi	r24, 0x01	; 1
		for(int b=1;b<6;b++)if(distancias[b]<menor){
    2d9e:	d9 01       	movw	r26, r18
    2da0:	8d 90       	ld	r8, X+
    2da2:	9d 90       	ld	r9, X+
    2da4:	ad 90       	ld	r10, X+
    2da6:	bd 90       	ld	r11, X+
    2da8:	9d 01       	movw	r18, r26
    2daa:	84 16       	cp	r8, r20
    2dac:	95 06       	cpc	r9, r21
    2dae:	a6 06       	cpc	r10, r22
    2db0:	b7 06       	cpc	r11, r23
    2db2:	20 f4       	brcc	.+8      	; 0x2dbc <achaMenorDistancia+0x110>
			menor = distancias[b];
			resultado[a] = b;
    2db4:	d8 01       	movw	r26, r16
    2db6:	8c 93       	st	X, r24
    2db8:	b5 01       	movw	r22, r10
    2dba:	a4 01       	movw	r20, r8
    2dbc:	8f 5f       	subi	r24, 0xFF	; 255
			z = cores[a*4+2]-cores[(48+b)*4+2];
			distancias[b] = x*x+y*y+z*z;
		}
		resultado[a] = 0;
		menor = distancias[0];
		for(int b=1;b<6;b++)if(distancias[b]<menor){
    2dbe:	86 30       	cpi	r24, 0x06	; 6
    2dc0:	71 f7       	brne	.-36     	; 0x2d9e <achaMenorDistancia+0xf2>
    2dc2:	38 96       	adiw	r30, 0x08	; 8
    2dc4:	0f 5f       	subi	r16, 0xFF	; 255
    2dc6:	1f 4f       	sbci	r17, 0xFF	; 255
		_delay_ms(50);
	}
}
void achaMenorDistancia(int16_t *cores, uint8_t *resultado){
	//Distancia direta
	for(int a=0;a<8*6;a++){
    2dc8:	ee 15       	cp	r30, r14
    2dca:	ff 05       	cpc	r31, r15
    2dcc:	09 f0       	breq	.+2      	; 0x2dd0 <achaMenorDistancia+0x124>
    2dce:	94 cf       	rjmp	.-216    	; 0x2cf8 <achaMenorDistancia+0x4c>
		for(int b=1;b<6;b++)if(distancias[b]<menor){
			menor = distancias[b];
			resultado[a] = b;
		}
	}
}
    2dd0:	6e 96       	adiw	r28, 0x1e	; 30
    2dd2:	0f b6       	in	r0, 0x3f	; 63
    2dd4:	f8 94       	cli
    2dd6:	de bf       	out	0x3e, r29	; 62
    2dd8:	0f be       	out	0x3f, r0	; 63
    2dda:	cd bf       	out	0x3d, r28	; 61
    2ddc:	df 91       	pop	r29
    2dde:	cf 91       	pop	r28
    2de0:	1f 91       	pop	r17
    2de2:	0f 91       	pop	r16
    2de4:	ff 90       	pop	r15
    2de6:	ef 90       	pop	r14
    2de8:	df 90       	pop	r13
    2dea:	cf 90       	pop	r12
    2dec:	bf 90       	pop	r11
    2dee:	af 90       	pop	r10
    2df0:	9f 90       	pop	r9
    2df2:	8f 90       	pop	r8
    2df4:	7f 90       	pop	r7
    2df6:	6f 90       	pop	r6
    2df8:	5f 90       	pop	r5
    2dfa:	4f 90       	pop	r4
    2dfc:	3f 90       	pop	r3
    2dfe:	2f 90       	pop	r2
    2e00:	08 95       	ret

00002e02 <checaConsistencia>:
uint8_t checaConsistencia(uint8_t *posicoes){
    2e02:	cf 93       	push	r28
    2e04:	df 93       	push	r29
    2e06:	00 d0       	rcall	.+0      	; 0x2e08 <checaConsistencia+0x6>
    2e08:	00 d0       	rcall	.+0      	; 0x2e0a <checaConsistencia+0x8>
    2e0a:	00 d0       	rcall	.+0      	; 0x2e0c <checaConsistencia+0xa>
    2e0c:	cd b7       	in	r28, 0x3d	; 61
    2e0e:	de b7       	in	r29, 0x3e	; 62
	//int8_t movimentos[MAX_JOGADAS];
	uint8_t a[6] = {0,0,0,0,0,0};
    2e10:	de 01       	movw	r26, r28
    2e12:	11 96       	adiw	r26, 0x01	; 1
    2e14:	26 e0       	ldi	r18, 0x06	; 6
    2e16:	fd 01       	movw	r30, r26
    2e18:	11 92       	st	Z+, r1
    2e1a:	2a 95       	dec	r18
    2e1c:	e9 f7       	brne	.-6      	; 0x2e18 <checaConsistencia+0x16>
    2e1e:	ac 01       	movw	r20, r24
    2e20:	40 5d       	subi	r20, 0xD0	; 208
    2e22:	5f 4f       	sbci	r21, 0xFF	; 255
	for(int b=0;b<48;b++)a[posicoes[b]]++;
    2e24:	fc 01       	movw	r30, r24
    2e26:	21 91       	ld	r18, Z+
    2e28:	cf 01       	movw	r24, r30
    2e2a:	fd 01       	movw	r30, r26
    2e2c:	e2 0f       	add	r30, r18
    2e2e:	f1 1d       	adc	r31, r1
    2e30:	20 81       	ld	r18, Z
    2e32:	2f 5f       	subi	r18, 0xFF	; 255
    2e34:	20 83       	st	Z, r18
    2e36:	84 17       	cp	r24, r20
    2e38:	95 07       	cpc	r25, r21
    2e3a:	a1 f7       	brne	.-24     	; 0x2e24 <checaConsistencia+0x22>
	if(a[0]!=8 || a[1]!=8 || a[2]!=8 || a[3]!=8 || a[4]!=8 || a[5]!=8)return 0;
    2e3c:	89 81       	ldd	r24, Y+1	; 0x01
    2e3e:	88 30       	cpi	r24, 0x08	; 8
    2e40:	81 f4       	brne	.+32     	; 0x2e62 <checaConsistencia+0x60>
    2e42:	8a 81       	ldd	r24, Y+2	; 0x02
    2e44:	88 30       	cpi	r24, 0x08	; 8
    2e46:	69 f4       	brne	.+26     	; 0x2e62 <checaConsistencia+0x60>
    2e48:	8b 81       	ldd	r24, Y+3	; 0x03
    2e4a:	88 30       	cpi	r24, 0x08	; 8
    2e4c:	51 f4       	brne	.+20     	; 0x2e62 <checaConsistencia+0x60>
    2e4e:	8c 81       	ldd	r24, Y+4	; 0x04
    2e50:	88 30       	cpi	r24, 0x08	; 8
    2e52:	39 f4       	brne	.+14     	; 0x2e62 <checaConsistencia+0x60>
    2e54:	8d 81       	ldd	r24, Y+5	; 0x05
    2e56:	88 30       	cpi	r24, 0x08	; 8
    2e58:	21 f4       	brne	.+8      	; 0x2e62 <checaConsistencia+0x60>
    2e5a:	81 e0       	ldi	r24, 0x01	; 1
    2e5c:	9e 81       	ldd	r25, Y+6	; 0x06
    2e5e:	98 30       	cpi	r25, 0x08	; 8
    2e60:	09 f0       	breq	.+2      	; 0x2e64 <checaConsistencia+0x62>
    2e62:	80 e0       	ldi	r24, 0x00	; 0
	return 1;
}
    2e64:	26 96       	adiw	r28, 0x06	; 6
    2e66:	0f b6       	in	r0, 0x3f	; 63
    2e68:	f8 94       	cli
    2e6a:	de bf       	out	0x3e, r29	; 62
    2e6c:	0f be       	out	0x3f, r0	; 63
    2e6e:	cd bf       	out	0x3d, r28	; 61
    2e70:	df 91       	pop	r29
    2e72:	cf 91       	pop	r28
    2e74:	08 95       	ret

00002e76 <rot>:
// 14  13  12 |22  21  20 |30  29  28 |38  37  36
//             40  41  42
//             47   D  43   U L F R B D  CW CCW
//             46  45  44
#define MAX_JOGADAS 250
void rot(uint8_t *vetor, uint8_t tipo){
    2e76:	dc 01       	movw	r26, r24
   uint8_t a;
#define quadraSwap(b,c,d,e) {a=vetor[b];vetor[b]=vetor[c];vetor[c]=vetor[d];vetor[d]=vetor[e];vetor[e]=a;}
   switch(tipo){
    2e78:	46 2f       	mov	r20, r22
    2e7a:	50 e0       	ldi	r21, 0x00	; 0
    2e7c:	4c 30       	cpi	r20, 0x0C	; 12
    2e7e:	51 05       	cpc	r21, r1
    2e80:	08 f0       	brcs	.+2      	; 0x2e84 <rot+0xe>
    2e82:	88 c5       	rjmp	.+2832   	; 0x3994 <rot+0xb1e>
    2e84:	fa 01       	movw	r30, r20
    2e86:	e0 5b       	subi	r30, 0xB0	; 176
    2e88:	ff 4f       	sbci	r31, 0xFF	; 255
    2e8a:	0c 94 49 25 	jmp	0x4a92	; 0x4a92 <__tablejump2__>
      case 0:// Up CW
         quadraSwap(0,6,4,2);
    2e8e:	8c 91       	ld	r24, X
    2e90:	16 96       	adiw	r26, 0x06	; 6
    2e92:	9c 91       	ld	r25, X
    2e94:	16 97       	sbiw	r26, 0x06	; 6
    2e96:	9c 93       	st	X, r25
    2e98:	14 96       	adiw	r26, 0x04	; 4
    2e9a:	9c 91       	ld	r25, X
    2e9c:	14 97       	sbiw	r26, 0x04	; 4
    2e9e:	16 96       	adiw	r26, 0x06	; 6
    2ea0:	9c 93       	st	X, r25
    2ea2:	16 97       	sbiw	r26, 0x06	; 6
    2ea4:	12 96       	adiw	r26, 0x02	; 2
    2ea6:	9c 91       	ld	r25, X
    2ea8:	12 97       	sbiw	r26, 0x02	; 2
    2eaa:	14 96       	adiw	r26, 0x04	; 4
    2eac:	9c 93       	st	X, r25
    2eae:	14 97       	sbiw	r26, 0x04	; 4
    2eb0:	12 96       	adiw	r26, 0x02	; 2
    2eb2:	8c 93       	st	X, r24
    2eb4:	12 97       	sbiw	r26, 0x02	; 2
         quadraSwap(1,7,5,3);
    2eb6:	11 96       	adiw	r26, 0x01	; 1
    2eb8:	8c 91       	ld	r24, X
    2eba:	11 97       	sbiw	r26, 0x01	; 1
    2ebc:	17 96       	adiw	r26, 0x07	; 7
    2ebe:	9c 91       	ld	r25, X
    2ec0:	17 97       	sbiw	r26, 0x07	; 7
    2ec2:	11 96       	adiw	r26, 0x01	; 1
    2ec4:	9c 93       	st	X, r25
    2ec6:	11 97       	sbiw	r26, 0x01	; 1
    2ec8:	15 96       	adiw	r26, 0x05	; 5
    2eca:	9c 91       	ld	r25, X
    2ecc:	15 97       	sbiw	r26, 0x05	; 5
    2ece:	17 96       	adiw	r26, 0x07	; 7
    2ed0:	9c 93       	st	X, r25
    2ed2:	17 97       	sbiw	r26, 0x07	; 7
    2ed4:	13 96       	adiw	r26, 0x03	; 3
    2ed6:	9c 91       	ld	r25, X
    2ed8:	13 97       	sbiw	r26, 0x03	; 3
    2eda:	15 96       	adiw	r26, 0x05	; 5
    2edc:	9c 93       	st	X, r25
    2ede:	15 97       	sbiw	r26, 0x05	; 5
    2ee0:	13 96       	adiw	r26, 0x03	; 3
    2ee2:	8c 93       	st	X, r24
    2ee4:	13 97       	sbiw	r26, 0x03	; 3
         quadraSwap(8 ,16,24,32);
    2ee6:	18 96       	adiw	r26, 0x08	; 8
    2ee8:	8c 91       	ld	r24, X
    2eea:	18 97       	sbiw	r26, 0x08	; 8
    2eec:	50 96       	adiw	r26, 0x10	; 16
    2eee:	9c 91       	ld	r25, X
    2ef0:	50 97       	sbiw	r26, 0x10	; 16
    2ef2:	18 96       	adiw	r26, 0x08	; 8
    2ef4:	9c 93       	st	X, r25
    2ef6:	18 97       	sbiw	r26, 0x08	; 8
    2ef8:	58 96       	adiw	r26, 0x18	; 24
    2efa:	9c 91       	ld	r25, X
    2efc:	58 97       	sbiw	r26, 0x18	; 24
    2efe:	50 96       	adiw	r26, 0x10	; 16
    2f00:	9c 93       	st	X, r25
    2f02:	50 97       	sbiw	r26, 0x10	; 16
    2f04:	90 96       	adiw	r26, 0x20	; 32
    2f06:	9c 91       	ld	r25, X
    2f08:	90 97       	sbiw	r26, 0x20	; 32
    2f0a:	58 96       	adiw	r26, 0x18	; 24
    2f0c:	9c 93       	st	X, r25
    2f0e:	58 97       	sbiw	r26, 0x18	; 24
    2f10:	90 96       	adiw	r26, 0x20	; 32
    2f12:	8c 93       	st	X, r24
    2f14:	90 97       	sbiw	r26, 0x20	; 32
         quadraSwap(9 ,17,25,33);
    2f16:	19 96       	adiw	r26, 0x09	; 9
    2f18:	8c 91       	ld	r24, X
    2f1a:	19 97       	sbiw	r26, 0x09	; 9
    2f1c:	51 96       	adiw	r26, 0x11	; 17
    2f1e:	9c 91       	ld	r25, X
    2f20:	51 97       	sbiw	r26, 0x11	; 17
    2f22:	19 96       	adiw	r26, 0x09	; 9
    2f24:	9c 93       	st	X, r25
    2f26:	19 97       	sbiw	r26, 0x09	; 9
    2f28:	59 96       	adiw	r26, 0x19	; 25
    2f2a:	9c 91       	ld	r25, X
    2f2c:	59 97       	sbiw	r26, 0x19	; 25
    2f2e:	51 96       	adiw	r26, 0x11	; 17
    2f30:	9c 93       	st	X, r25
    2f32:	51 97       	sbiw	r26, 0x11	; 17
    2f34:	91 96       	adiw	r26, 0x21	; 33
    2f36:	9c 91       	ld	r25, X
    2f38:	91 97       	sbiw	r26, 0x21	; 33
    2f3a:	59 96       	adiw	r26, 0x19	; 25
    2f3c:	9c 93       	st	X, r25
    2f3e:	59 97       	sbiw	r26, 0x19	; 25
    2f40:	91 96       	adiw	r26, 0x21	; 33
    2f42:	8c 93       	st	X, r24
    2f44:	91 97       	sbiw	r26, 0x21	; 33
         quadraSwap(10,18,26,34);
    2f46:	1a 96       	adiw	r26, 0x0a	; 10
    2f48:	8c 91       	ld	r24, X
    2f4a:	1a 97       	sbiw	r26, 0x0a	; 10
    2f4c:	52 96       	adiw	r26, 0x12	; 18
    2f4e:	9c 91       	ld	r25, X
    2f50:	52 97       	sbiw	r26, 0x12	; 18
    2f52:	1a 96       	adiw	r26, 0x0a	; 10
    2f54:	9c 93       	st	X, r25
    2f56:	1a 97       	sbiw	r26, 0x0a	; 10
    2f58:	5a 96       	adiw	r26, 0x1a	; 26
    2f5a:	9c 91       	ld	r25, X
    2f5c:	5a 97       	sbiw	r26, 0x1a	; 26
    2f5e:	52 96       	adiw	r26, 0x12	; 18
    2f60:	9c 93       	st	X, r25
    2f62:	52 97       	sbiw	r26, 0x12	; 18
    2f64:	92 96       	adiw	r26, 0x22	; 34
    2f66:	9c 91       	ld	r25, X
    2f68:	92 97       	sbiw	r26, 0x22	; 34
    2f6a:	5a 96       	adiw	r26, 0x1a	; 26
    2f6c:	9c 93       	st	X, r25
    2f6e:	5a 97       	sbiw	r26, 0x1a	; 26
    2f70:	57 c1       	rjmp	.+686    	; 0x3220 <rot+0x3aa>
         break;
      case 1:// Up CCW
         quadraSwap(0,2,4,6);
    2f72:	8c 91       	ld	r24, X
    2f74:	12 96       	adiw	r26, 0x02	; 2
    2f76:	9c 91       	ld	r25, X
    2f78:	12 97       	sbiw	r26, 0x02	; 2
    2f7a:	9c 93       	st	X, r25
    2f7c:	14 96       	adiw	r26, 0x04	; 4
    2f7e:	9c 91       	ld	r25, X
    2f80:	14 97       	sbiw	r26, 0x04	; 4
    2f82:	12 96       	adiw	r26, 0x02	; 2
    2f84:	9c 93       	st	X, r25
    2f86:	12 97       	sbiw	r26, 0x02	; 2
    2f88:	16 96       	adiw	r26, 0x06	; 6
    2f8a:	9c 91       	ld	r25, X
    2f8c:	16 97       	sbiw	r26, 0x06	; 6
    2f8e:	14 96       	adiw	r26, 0x04	; 4
    2f90:	9c 93       	st	X, r25
    2f92:	14 97       	sbiw	r26, 0x04	; 4
    2f94:	16 96       	adiw	r26, 0x06	; 6
    2f96:	8c 93       	st	X, r24
    2f98:	16 97       	sbiw	r26, 0x06	; 6
         quadraSwap(1,3,5,7);
    2f9a:	11 96       	adiw	r26, 0x01	; 1
    2f9c:	8c 91       	ld	r24, X
    2f9e:	11 97       	sbiw	r26, 0x01	; 1
    2fa0:	13 96       	adiw	r26, 0x03	; 3
    2fa2:	9c 91       	ld	r25, X
    2fa4:	13 97       	sbiw	r26, 0x03	; 3
    2fa6:	11 96       	adiw	r26, 0x01	; 1
    2fa8:	9c 93       	st	X, r25
    2faa:	11 97       	sbiw	r26, 0x01	; 1
    2fac:	15 96       	adiw	r26, 0x05	; 5
    2fae:	9c 91       	ld	r25, X
    2fb0:	15 97       	sbiw	r26, 0x05	; 5
    2fb2:	13 96       	adiw	r26, 0x03	; 3
    2fb4:	9c 93       	st	X, r25
    2fb6:	13 97       	sbiw	r26, 0x03	; 3
    2fb8:	17 96       	adiw	r26, 0x07	; 7
    2fba:	9c 91       	ld	r25, X
    2fbc:	17 97       	sbiw	r26, 0x07	; 7
    2fbe:	15 96       	adiw	r26, 0x05	; 5
    2fc0:	9c 93       	st	X, r25
    2fc2:	15 97       	sbiw	r26, 0x05	; 5
    2fc4:	17 96       	adiw	r26, 0x07	; 7
    2fc6:	8c 93       	st	X, r24
    2fc8:	17 97       	sbiw	r26, 0x07	; 7
         quadraSwap(8 ,32,24,16);
    2fca:	18 96       	adiw	r26, 0x08	; 8
    2fcc:	8c 91       	ld	r24, X
    2fce:	18 97       	sbiw	r26, 0x08	; 8
    2fd0:	90 96       	adiw	r26, 0x20	; 32
    2fd2:	9c 91       	ld	r25, X
    2fd4:	90 97       	sbiw	r26, 0x20	; 32
    2fd6:	18 96       	adiw	r26, 0x08	; 8
    2fd8:	9c 93       	st	X, r25
    2fda:	18 97       	sbiw	r26, 0x08	; 8
    2fdc:	58 96       	adiw	r26, 0x18	; 24
    2fde:	9c 91       	ld	r25, X
    2fe0:	58 97       	sbiw	r26, 0x18	; 24
    2fe2:	90 96       	adiw	r26, 0x20	; 32
    2fe4:	9c 93       	st	X, r25
    2fe6:	90 97       	sbiw	r26, 0x20	; 32
    2fe8:	50 96       	adiw	r26, 0x10	; 16
    2fea:	9c 91       	ld	r25, X
    2fec:	50 97       	sbiw	r26, 0x10	; 16
    2fee:	58 96       	adiw	r26, 0x18	; 24
    2ff0:	9c 93       	st	X, r25
    2ff2:	58 97       	sbiw	r26, 0x18	; 24
    2ff4:	50 96       	adiw	r26, 0x10	; 16
    2ff6:	8c 93       	st	X, r24
    2ff8:	50 97       	sbiw	r26, 0x10	; 16
         quadraSwap(9 ,33,25,17);
    2ffa:	19 96       	adiw	r26, 0x09	; 9
    2ffc:	8c 91       	ld	r24, X
    2ffe:	19 97       	sbiw	r26, 0x09	; 9
    3000:	91 96       	adiw	r26, 0x21	; 33
    3002:	9c 91       	ld	r25, X
    3004:	91 97       	sbiw	r26, 0x21	; 33
    3006:	19 96       	adiw	r26, 0x09	; 9
    3008:	9c 93       	st	X, r25
    300a:	19 97       	sbiw	r26, 0x09	; 9
    300c:	59 96       	adiw	r26, 0x19	; 25
    300e:	9c 91       	ld	r25, X
    3010:	59 97       	sbiw	r26, 0x19	; 25
    3012:	91 96       	adiw	r26, 0x21	; 33
    3014:	9c 93       	st	X, r25
    3016:	91 97       	sbiw	r26, 0x21	; 33
    3018:	51 96       	adiw	r26, 0x11	; 17
    301a:	9c 91       	ld	r25, X
    301c:	51 97       	sbiw	r26, 0x11	; 17
    301e:	59 96       	adiw	r26, 0x19	; 25
    3020:	9c 93       	st	X, r25
    3022:	59 97       	sbiw	r26, 0x19	; 25
    3024:	51 96       	adiw	r26, 0x11	; 17
    3026:	8c 93       	st	X, r24
    3028:	51 97       	sbiw	r26, 0x11	; 17
         quadraSwap(10,34,26,18);
    302a:	1a 96       	adiw	r26, 0x0a	; 10
    302c:	8c 91       	ld	r24, X
    302e:	1a 97       	sbiw	r26, 0x0a	; 10
    3030:	92 96       	adiw	r26, 0x22	; 34
    3032:	9c 91       	ld	r25, X
    3034:	92 97       	sbiw	r26, 0x22	; 34
    3036:	1a 96       	adiw	r26, 0x0a	; 10
    3038:	9c 93       	st	X, r25
    303a:	1a 97       	sbiw	r26, 0x0a	; 10
    303c:	5a 96       	adiw	r26, 0x1a	; 26
    303e:	9c 91       	ld	r25, X
    3040:	5a 97       	sbiw	r26, 0x1a	; 26
    3042:	92 96       	adiw	r26, 0x22	; 34
    3044:	9c 93       	st	X, r25
    3046:	92 97       	sbiw	r26, 0x22	; 34
    3048:	52 96       	adiw	r26, 0x12	; 18
    304a:	9c 91       	ld	r25, X
    304c:	52 97       	sbiw	r26, 0x12	; 18
    304e:	5a 96       	adiw	r26, 0x1a	; 26
    3050:	9c 93       	st	X, r25
    3052:	5a 97       	sbiw	r26, 0x1a	; 26
    3054:	c5 c2       	rjmp	.+1418   	; 0x35e0 <rot+0x76a>
         break;
      case 2:// Left CW
         quadraSwap(8,14,12,10);
    3056:	18 96       	adiw	r26, 0x08	; 8
    3058:	8c 91       	ld	r24, X
    305a:	18 97       	sbiw	r26, 0x08	; 8
    305c:	1e 96       	adiw	r26, 0x0e	; 14
    305e:	9c 91       	ld	r25, X
    3060:	1e 97       	sbiw	r26, 0x0e	; 14
    3062:	18 96       	adiw	r26, 0x08	; 8
    3064:	9c 93       	st	X, r25
    3066:	18 97       	sbiw	r26, 0x08	; 8
    3068:	1c 96       	adiw	r26, 0x0c	; 12
    306a:	9c 91       	ld	r25, X
    306c:	1c 97       	sbiw	r26, 0x0c	; 12
    306e:	1e 96       	adiw	r26, 0x0e	; 14
    3070:	9c 93       	st	X, r25
    3072:	1e 97       	sbiw	r26, 0x0e	; 14
    3074:	1a 96       	adiw	r26, 0x0a	; 10
    3076:	9c 91       	ld	r25, X
    3078:	1a 97       	sbiw	r26, 0x0a	; 10
    307a:	1c 96       	adiw	r26, 0x0c	; 12
    307c:	9c 93       	st	X, r25
    307e:	1c 97       	sbiw	r26, 0x0c	; 12
    3080:	1a 96       	adiw	r26, 0x0a	; 10
    3082:	8c 93       	st	X, r24
    3084:	1a 97       	sbiw	r26, 0x0a	; 10
         quadraSwap(9,15,13,11);
    3086:	19 96       	adiw	r26, 0x09	; 9
    3088:	8c 91       	ld	r24, X
    308a:	19 97       	sbiw	r26, 0x09	; 9
    308c:	1f 96       	adiw	r26, 0x0f	; 15
    308e:	9c 91       	ld	r25, X
    3090:	1f 97       	sbiw	r26, 0x0f	; 15
    3092:	19 96       	adiw	r26, 0x09	; 9
    3094:	9c 93       	st	X, r25
    3096:	19 97       	sbiw	r26, 0x09	; 9
    3098:	1d 96       	adiw	r26, 0x0d	; 13
    309a:	9c 91       	ld	r25, X
    309c:	1d 97       	sbiw	r26, 0x0d	; 13
    309e:	1f 96       	adiw	r26, 0x0f	; 15
    30a0:	9c 93       	st	X, r25
    30a2:	1f 97       	sbiw	r26, 0x0f	; 15
    30a4:	1b 96       	adiw	r26, 0x0b	; 11
    30a6:	9c 91       	ld	r25, X
    30a8:	1b 97       	sbiw	r26, 0x0b	; 11
    30aa:	1d 96       	adiw	r26, 0x0d	; 13
    30ac:	9c 93       	st	X, r25
    30ae:	1d 97       	sbiw	r26, 0x0d	; 13
    30b0:	1b 96       	adiw	r26, 0x0b	; 11
    30b2:	8c 93       	st	X, r24
    30b4:	1b 97       	sbiw	r26, 0x0b	; 11
         quadraSwap(0,36,40,16);
    30b6:	8c 91       	ld	r24, X
    30b8:	94 96       	adiw	r26, 0x24	; 36
    30ba:	9c 91       	ld	r25, X
    30bc:	94 97       	sbiw	r26, 0x24	; 36
    30be:	9c 93       	st	X, r25
    30c0:	98 96       	adiw	r26, 0x28	; 40
    30c2:	9c 91       	ld	r25, X
    30c4:	98 97       	sbiw	r26, 0x28	; 40
    30c6:	94 96       	adiw	r26, 0x24	; 36
    30c8:	9c 93       	st	X, r25
    30ca:	94 97       	sbiw	r26, 0x24	; 36
    30cc:	50 96       	adiw	r26, 0x10	; 16
    30ce:	9c 91       	ld	r25, X
    30d0:	50 97       	sbiw	r26, 0x10	; 16
    30d2:	98 96       	adiw	r26, 0x28	; 40
    30d4:	9c 93       	st	X, r25
    30d6:	98 97       	sbiw	r26, 0x28	; 40
    30d8:	50 96       	adiw	r26, 0x10	; 16
    30da:	8c 93       	st	X, r24
    30dc:	50 97       	sbiw	r26, 0x10	; 16
         quadraSwap(7,35,47,23);
    30de:	17 96       	adiw	r26, 0x07	; 7
    30e0:	8c 91       	ld	r24, X
    30e2:	17 97       	sbiw	r26, 0x07	; 7
    30e4:	93 96       	adiw	r26, 0x23	; 35
    30e6:	9c 91       	ld	r25, X
    30e8:	93 97       	sbiw	r26, 0x23	; 35
    30ea:	17 96       	adiw	r26, 0x07	; 7
    30ec:	9c 93       	st	X, r25
    30ee:	17 97       	sbiw	r26, 0x07	; 7
    30f0:	9f 96       	adiw	r26, 0x2f	; 47
    30f2:	9c 91       	ld	r25, X
    30f4:	9f 97       	sbiw	r26, 0x2f	; 47
    30f6:	93 96       	adiw	r26, 0x23	; 35
    30f8:	9c 93       	st	X, r25
    30fa:	93 97       	sbiw	r26, 0x23	; 35
    30fc:	57 96       	adiw	r26, 0x17	; 23
    30fe:	9c 91       	ld	r25, X
    3100:	57 97       	sbiw	r26, 0x17	; 23
    3102:	9f 96       	adiw	r26, 0x2f	; 47
    3104:	9c 93       	st	X, r25
    3106:	9f 97       	sbiw	r26, 0x2f	; 47
    3108:	57 96       	adiw	r26, 0x17	; 23
    310a:	8c 93       	st	X, r24
    310c:	57 97       	sbiw	r26, 0x17	; 23
         quadraSwap(6,34,46,22);
    310e:	16 96       	adiw	r26, 0x06	; 6
    3110:	8c 91       	ld	r24, X
    3112:	16 97       	sbiw	r26, 0x06	; 6
    3114:	92 96       	adiw	r26, 0x22	; 34
    3116:	9c 91       	ld	r25, X
    3118:	92 97       	sbiw	r26, 0x22	; 34
    311a:	16 96       	adiw	r26, 0x06	; 6
    311c:	9c 93       	st	X, r25
    311e:	16 97       	sbiw	r26, 0x06	; 6
    3120:	9e 96       	adiw	r26, 0x2e	; 46
    3122:	9c 91       	ld	r25, X
    3124:	9e 97       	sbiw	r26, 0x2e	; 46
    3126:	92 96       	adiw	r26, 0x22	; 34
    3128:	9c 93       	st	X, r25
    312a:	92 97       	sbiw	r26, 0x22	; 34
    312c:	56 96       	adiw	r26, 0x16	; 22
    312e:	9c 91       	ld	r25, X
    3130:	56 97       	sbiw	r26, 0x16	; 22
    3132:	9e 96       	adiw	r26, 0x2e	; 46
    3134:	9c 93       	st	X, r25
    3136:	9e 97       	sbiw	r26, 0x2e	; 46
    3138:	56 96       	adiw	r26, 0x16	; 22
    313a:	8c 93       	st	X, r24
         break;
    313c:	08 95       	ret
      case 3:// Left CCW
         quadraSwap(8,10,12,14);
    313e:	18 96       	adiw	r26, 0x08	; 8
    3140:	8c 91       	ld	r24, X
    3142:	18 97       	sbiw	r26, 0x08	; 8
    3144:	1a 96       	adiw	r26, 0x0a	; 10
    3146:	9c 91       	ld	r25, X
    3148:	1a 97       	sbiw	r26, 0x0a	; 10
    314a:	18 96       	adiw	r26, 0x08	; 8
    314c:	9c 93       	st	X, r25
    314e:	18 97       	sbiw	r26, 0x08	; 8
    3150:	1c 96       	adiw	r26, 0x0c	; 12
    3152:	9c 91       	ld	r25, X
    3154:	1c 97       	sbiw	r26, 0x0c	; 12
    3156:	1a 96       	adiw	r26, 0x0a	; 10
    3158:	9c 93       	st	X, r25
    315a:	1a 97       	sbiw	r26, 0x0a	; 10
    315c:	1e 96       	adiw	r26, 0x0e	; 14
    315e:	9c 91       	ld	r25, X
    3160:	1e 97       	sbiw	r26, 0x0e	; 14
    3162:	1c 96       	adiw	r26, 0x0c	; 12
    3164:	9c 93       	st	X, r25
    3166:	1c 97       	sbiw	r26, 0x0c	; 12
    3168:	1e 96       	adiw	r26, 0x0e	; 14
    316a:	8c 93       	st	X, r24
    316c:	1e 97       	sbiw	r26, 0x0e	; 14
         quadraSwap(9,11,13,15);
    316e:	19 96       	adiw	r26, 0x09	; 9
    3170:	8c 91       	ld	r24, X
    3172:	19 97       	sbiw	r26, 0x09	; 9
    3174:	1b 96       	adiw	r26, 0x0b	; 11
    3176:	9c 91       	ld	r25, X
    3178:	1b 97       	sbiw	r26, 0x0b	; 11
    317a:	19 96       	adiw	r26, 0x09	; 9
    317c:	9c 93       	st	X, r25
    317e:	19 97       	sbiw	r26, 0x09	; 9
    3180:	1d 96       	adiw	r26, 0x0d	; 13
    3182:	9c 91       	ld	r25, X
    3184:	1d 97       	sbiw	r26, 0x0d	; 13
    3186:	1b 96       	adiw	r26, 0x0b	; 11
    3188:	9c 93       	st	X, r25
    318a:	1b 97       	sbiw	r26, 0x0b	; 11
    318c:	1f 96       	adiw	r26, 0x0f	; 15
    318e:	9c 91       	ld	r25, X
    3190:	1f 97       	sbiw	r26, 0x0f	; 15
    3192:	1d 96       	adiw	r26, 0x0d	; 13
    3194:	9c 93       	st	X, r25
    3196:	1d 97       	sbiw	r26, 0x0d	; 13
    3198:	1f 96       	adiw	r26, 0x0f	; 15
    319a:	8c 93       	st	X, r24
    319c:	1f 97       	sbiw	r26, 0x0f	; 15
         quadraSwap(0,16,40,36);
    319e:	8c 91       	ld	r24, X
    31a0:	50 96       	adiw	r26, 0x10	; 16
    31a2:	9c 91       	ld	r25, X
    31a4:	50 97       	sbiw	r26, 0x10	; 16
    31a6:	9c 93       	st	X, r25
    31a8:	98 96       	adiw	r26, 0x28	; 40
    31aa:	9c 91       	ld	r25, X
    31ac:	98 97       	sbiw	r26, 0x28	; 40
    31ae:	50 96       	adiw	r26, 0x10	; 16
    31b0:	9c 93       	st	X, r25
    31b2:	50 97       	sbiw	r26, 0x10	; 16
    31b4:	94 96       	adiw	r26, 0x24	; 36
    31b6:	9c 91       	ld	r25, X
    31b8:	94 97       	sbiw	r26, 0x24	; 36
    31ba:	98 96       	adiw	r26, 0x28	; 40
    31bc:	9c 93       	st	X, r25
    31be:	98 97       	sbiw	r26, 0x28	; 40
    31c0:	94 96       	adiw	r26, 0x24	; 36
    31c2:	8c 93       	st	X, r24
    31c4:	94 97       	sbiw	r26, 0x24	; 36
         quadraSwap(7,23,47,35);
    31c6:	17 96       	adiw	r26, 0x07	; 7
    31c8:	8c 91       	ld	r24, X
    31ca:	17 97       	sbiw	r26, 0x07	; 7
    31cc:	57 96       	adiw	r26, 0x17	; 23
    31ce:	9c 91       	ld	r25, X
    31d0:	57 97       	sbiw	r26, 0x17	; 23
    31d2:	17 96       	adiw	r26, 0x07	; 7
    31d4:	9c 93       	st	X, r25
    31d6:	17 97       	sbiw	r26, 0x07	; 7
    31d8:	9f 96       	adiw	r26, 0x2f	; 47
    31da:	9c 91       	ld	r25, X
    31dc:	9f 97       	sbiw	r26, 0x2f	; 47
    31de:	57 96       	adiw	r26, 0x17	; 23
    31e0:	9c 93       	st	X, r25
    31e2:	57 97       	sbiw	r26, 0x17	; 23
    31e4:	93 96       	adiw	r26, 0x23	; 35
    31e6:	9c 91       	ld	r25, X
    31e8:	93 97       	sbiw	r26, 0x23	; 35
    31ea:	9f 96       	adiw	r26, 0x2f	; 47
    31ec:	9c 93       	st	X, r25
    31ee:	9f 97       	sbiw	r26, 0x2f	; 47
    31f0:	93 96       	adiw	r26, 0x23	; 35
    31f2:	8c 93       	st	X, r24
    31f4:	93 97       	sbiw	r26, 0x23	; 35
         quadraSwap(6,22,46,34);
    31f6:	16 96       	adiw	r26, 0x06	; 6
    31f8:	8c 91       	ld	r24, X
    31fa:	16 97       	sbiw	r26, 0x06	; 6
    31fc:	56 96       	adiw	r26, 0x16	; 22
    31fe:	9c 91       	ld	r25, X
    3200:	56 97       	sbiw	r26, 0x16	; 22
    3202:	16 96       	adiw	r26, 0x06	; 6
    3204:	9c 93       	st	X, r25
    3206:	16 97       	sbiw	r26, 0x06	; 6
    3208:	9e 96       	adiw	r26, 0x2e	; 46
    320a:	9c 91       	ld	r25, X
    320c:	9e 97       	sbiw	r26, 0x2e	; 46
    320e:	56 96       	adiw	r26, 0x16	; 22
    3210:	9c 93       	st	X, r25
    3212:	56 97       	sbiw	r26, 0x16	; 22
    3214:	92 96       	adiw	r26, 0x22	; 34
    3216:	9c 91       	ld	r25, X
    3218:	92 97       	sbiw	r26, 0x22	; 34
    321a:	9e 96       	adiw	r26, 0x2e	; 46
    321c:	9c 93       	st	X, r25
    321e:	9e 97       	sbiw	r26, 0x2e	; 46
    3220:	92 96       	adiw	r26, 0x22	; 34
    3222:	8c 93       	st	X, r24
         break;
    3224:	08 95       	ret
      case 4:// Front CW
         quadraSwap(16,22,20,18);
    3226:	50 96       	adiw	r26, 0x10	; 16
    3228:	8c 91       	ld	r24, X
    322a:	50 97       	sbiw	r26, 0x10	; 16
    322c:	56 96       	adiw	r26, 0x16	; 22
    322e:	9c 91       	ld	r25, X
    3230:	56 97       	sbiw	r26, 0x16	; 22
    3232:	50 96       	adiw	r26, 0x10	; 16
    3234:	9c 93       	st	X, r25
    3236:	50 97       	sbiw	r26, 0x10	; 16
    3238:	54 96       	adiw	r26, 0x14	; 20
    323a:	9c 91       	ld	r25, X
    323c:	54 97       	sbiw	r26, 0x14	; 20
    323e:	56 96       	adiw	r26, 0x16	; 22
    3240:	9c 93       	st	X, r25
    3242:	56 97       	sbiw	r26, 0x16	; 22
    3244:	52 96       	adiw	r26, 0x12	; 18
    3246:	9c 91       	ld	r25, X
    3248:	52 97       	sbiw	r26, 0x12	; 18
    324a:	54 96       	adiw	r26, 0x14	; 20
    324c:	9c 93       	st	X, r25
    324e:	54 97       	sbiw	r26, 0x14	; 20
    3250:	52 96       	adiw	r26, 0x12	; 18
    3252:	8c 93       	st	X, r24
    3254:	52 97       	sbiw	r26, 0x12	; 18
         quadraSwap(17,23,21,19);
    3256:	51 96       	adiw	r26, 0x11	; 17
    3258:	8c 91       	ld	r24, X
    325a:	51 97       	sbiw	r26, 0x11	; 17
    325c:	57 96       	adiw	r26, 0x17	; 23
    325e:	9c 91       	ld	r25, X
    3260:	57 97       	sbiw	r26, 0x17	; 23
    3262:	51 96       	adiw	r26, 0x11	; 17
    3264:	9c 93       	st	X, r25
    3266:	51 97       	sbiw	r26, 0x11	; 17
    3268:	55 96       	adiw	r26, 0x15	; 21
    326a:	9c 91       	ld	r25, X
    326c:	55 97       	sbiw	r26, 0x15	; 21
    326e:	57 96       	adiw	r26, 0x17	; 23
    3270:	9c 93       	st	X, r25
    3272:	57 97       	sbiw	r26, 0x17	; 23
    3274:	53 96       	adiw	r26, 0x13	; 19
    3276:	9c 91       	ld	r25, X
    3278:	53 97       	sbiw	r26, 0x13	; 19
    327a:	55 96       	adiw	r26, 0x15	; 21
    327c:	9c 93       	st	X, r25
    327e:	55 97       	sbiw	r26, 0x15	; 21
    3280:	53 96       	adiw	r26, 0x13	; 19
    3282:	8c 93       	st	X, r24
    3284:	53 97       	sbiw	r26, 0x13	; 19
         quadraSwap(6,12,42,24);
    3286:	16 96       	adiw	r26, 0x06	; 6
    3288:	8c 91       	ld	r24, X
    328a:	16 97       	sbiw	r26, 0x06	; 6
    328c:	1c 96       	adiw	r26, 0x0c	; 12
    328e:	9c 91       	ld	r25, X
    3290:	1c 97       	sbiw	r26, 0x0c	; 12
    3292:	16 96       	adiw	r26, 0x06	; 6
    3294:	9c 93       	st	X, r25
    3296:	16 97       	sbiw	r26, 0x06	; 6
    3298:	9a 96       	adiw	r26, 0x2a	; 42
    329a:	9c 91       	ld	r25, X
    329c:	9a 97       	sbiw	r26, 0x2a	; 42
    329e:	1c 96       	adiw	r26, 0x0c	; 12
    32a0:	9c 93       	st	X, r25
    32a2:	1c 97       	sbiw	r26, 0x0c	; 12
    32a4:	58 96       	adiw	r26, 0x18	; 24
    32a6:	9c 91       	ld	r25, X
    32a8:	58 97       	sbiw	r26, 0x18	; 24
    32aa:	9a 96       	adiw	r26, 0x2a	; 42
    32ac:	9c 93       	st	X, r25
    32ae:	9a 97       	sbiw	r26, 0x2a	; 42
    32b0:	58 96       	adiw	r26, 0x18	; 24
    32b2:	8c 93       	st	X, r24
    32b4:	58 97       	sbiw	r26, 0x18	; 24
         quadraSwap(5,11,41,31);
    32b6:	15 96       	adiw	r26, 0x05	; 5
    32b8:	8c 91       	ld	r24, X
    32ba:	15 97       	sbiw	r26, 0x05	; 5
    32bc:	1b 96       	adiw	r26, 0x0b	; 11
    32be:	9c 91       	ld	r25, X
    32c0:	1b 97       	sbiw	r26, 0x0b	; 11
    32c2:	15 96       	adiw	r26, 0x05	; 5
    32c4:	9c 93       	st	X, r25
    32c6:	15 97       	sbiw	r26, 0x05	; 5
    32c8:	99 96       	adiw	r26, 0x29	; 41
    32ca:	9c 91       	ld	r25, X
    32cc:	99 97       	sbiw	r26, 0x29	; 41
    32ce:	1b 96       	adiw	r26, 0x0b	; 11
    32d0:	9c 93       	st	X, r25
    32d2:	1b 97       	sbiw	r26, 0x0b	; 11
    32d4:	5f 96       	adiw	r26, 0x1f	; 31
    32d6:	9c 91       	ld	r25, X
    32d8:	5f 97       	sbiw	r26, 0x1f	; 31
    32da:	99 96       	adiw	r26, 0x29	; 41
    32dc:	9c 93       	st	X, r25
    32de:	99 97       	sbiw	r26, 0x29	; 41
    32e0:	5f 96       	adiw	r26, 0x1f	; 31
    32e2:	8c 93       	st	X, r24
    32e4:	5f 97       	sbiw	r26, 0x1f	; 31
         quadraSwap(4,10,40,30);
    32e6:	14 96       	adiw	r26, 0x04	; 4
    32e8:	8c 91       	ld	r24, X
    32ea:	14 97       	sbiw	r26, 0x04	; 4
    32ec:	1a 96       	adiw	r26, 0x0a	; 10
    32ee:	9c 91       	ld	r25, X
    32f0:	1a 97       	sbiw	r26, 0x0a	; 10
    32f2:	14 96       	adiw	r26, 0x04	; 4
    32f4:	9c 93       	st	X, r25
    32f6:	14 97       	sbiw	r26, 0x04	; 4
    32f8:	98 96       	adiw	r26, 0x28	; 40
    32fa:	9c 91       	ld	r25, X
    32fc:	98 97       	sbiw	r26, 0x28	; 40
    32fe:	1a 96       	adiw	r26, 0x0a	; 10
    3300:	9c 93       	st	X, r25
    3302:	1a 97       	sbiw	r26, 0x0a	; 10
    3304:	5e 96       	adiw	r26, 0x1e	; 30
    3306:	9c 91       	ld	r25, X
    3308:	5e 97       	sbiw	r26, 0x1e	; 30
    330a:	98 96       	adiw	r26, 0x28	; 40
    330c:	9c 93       	st	X, r25
    330e:	98 97       	sbiw	r26, 0x28	; 40
    3310:	5e 96       	adiw	r26, 0x1e	; 30
    3312:	8c 93       	st	X, r24
         break;
    3314:	08 95       	ret
      case 5:// Front CCW
         quadraSwap(16,18,20,22);
    3316:	50 96       	adiw	r26, 0x10	; 16
    3318:	8c 91       	ld	r24, X
    331a:	50 97       	sbiw	r26, 0x10	; 16
    331c:	52 96       	adiw	r26, 0x12	; 18
    331e:	9c 91       	ld	r25, X
    3320:	52 97       	sbiw	r26, 0x12	; 18
    3322:	50 96       	adiw	r26, 0x10	; 16
    3324:	9c 93       	st	X, r25
    3326:	50 97       	sbiw	r26, 0x10	; 16
    3328:	54 96       	adiw	r26, 0x14	; 20
    332a:	9c 91       	ld	r25, X
    332c:	54 97       	sbiw	r26, 0x14	; 20
    332e:	52 96       	adiw	r26, 0x12	; 18
    3330:	9c 93       	st	X, r25
    3332:	52 97       	sbiw	r26, 0x12	; 18
    3334:	56 96       	adiw	r26, 0x16	; 22
    3336:	9c 91       	ld	r25, X
    3338:	56 97       	sbiw	r26, 0x16	; 22
    333a:	54 96       	adiw	r26, 0x14	; 20
    333c:	9c 93       	st	X, r25
    333e:	54 97       	sbiw	r26, 0x14	; 20
    3340:	56 96       	adiw	r26, 0x16	; 22
    3342:	8c 93       	st	X, r24
    3344:	56 97       	sbiw	r26, 0x16	; 22
         quadraSwap(17,19,21,23);
    3346:	51 96       	adiw	r26, 0x11	; 17
    3348:	8c 91       	ld	r24, X
    334a:	51 97       	sbiw	r26, 0x11	; 17
    334c:	53 96       	adiw	r26, 0x13	; 19
    334e:	9c 91       	ld	r25, X
    3350:	53 97       	sbiw	r26, 0x13	; 19
    3352:	51 96       	adiw	r26, 0x11	; 17
    3354:	9c 93       	st	X, r25
    3356:	51 97       	sbiw	r26, 0x11	; 17
    3358:	55 96       	adiw	r26, 0x15	; 21
    335a:	9c 91       	ld	r25, X
    335c:	55 97       	sbiw	r26, 0x15	; 21
    335e:	53 96       	adiw	r26, 0x13	; 19
    3360:	9c 93       	st	X, r25
    3362:	53 97       	sbiw	r26, 0x13	; 19
    3364:	57 96       	adiw	r26, 0x17	; 23
    3366:	9c 91       	ld	r25, X
    3368:	57 97       	sbiw	r26, 0x17	; 23
    336a:	55 96       	adiw	r26, 0x15	; 21
    336c:	9c 93       	st	X, r25
    336e:	55 97       	sbiw	r26, 0x15	; 21
    3370:	57 96       	adiw	r26, 0x17	; 23
    3372:	8c 93       	st	X, r24
    3374:	57 97       	sbiw	r26, 0x17	; 23
         quadraSwap(6,24,42,12);
    3376:	16 96       	adiw	r26, 0x06	; 6
    3378:	8c 91       	ld	r24, X
    337a:	16 97       	sbiw	r26, 0x06	; 6
    337c:	58 96       	adiw	r26, 0x18	; 24
    337e:	9c 91       	ld	r25, X
    3380:	58 97       	sbiw	r26, 0x18	; 24
    3382:	16 96       	adiw	r26, 0x06	; 6
    3384:	9c 93       	st	X, r25
    3386:	16 97       	sbiw	r26, 0x06	; 6
    3388:	9a 96       	adiw	r26, 0x2a	; 42
    338a:	9c 91       	ld	r25, X
    338c:	9a 97       	sbiw	r26, 0x2a	; 42
    338e:	58 96       	adiw	r26, 0x18	; 24
    3390:	9c 93       	st	X, r25
    3392:	58 97       	sbiw	r26, 0x18	; 24
    3394:	1c 96       	adiw	r26, 0x0c	; 12
    3396:	9c 91       	ld	r25, X
    3398:	1c 97       	sbiw	r26, 0x0c	; 12
    339a:	9a 96       	adiw	r26, 0x2a	; 42
    339c:	9c 93       	st	X, r25
    339e:	9a 97       	sbiw	r26, 0x2a	; 42
    33a0:	1c 96       	adiw	r26, 0x0c	; 12
    33a2:	8c 93       	st	X, r24
    33a4:	1c 97       	sbiw	r26, 0x0c	; 12
         quadraSwap(5,31,41,11);
    33a6:	15 96       	adiw	r26, 0x05	; 5
    33a8:	8c 91       	ld	r24, X
    33aa:	15 97       	sbiw	r26, 0x05	; 5
    33ac:	5f 96       	adiw	r26, 0x1f	; 31
    33ae:	9c 91       	ld	r25, X
    33b0:	5f 97       	sbiw	r26, 0x1f	; 31
    33b2:	15 96       	adiw	r26, 0x05	; 5
    33b4:	9c 93       	st	X, r25
    33b6:	15 97       	sbiw	r26, 0x05	; 5
    33b8:	99 96       	adiw	r26, 0x29	; 41
    33ba:	9c 91       	ld	r25, X
    33bc:	99 97       	sbiw	r26, 0x29	; 41
    33be:	5f 96       	adiw	r26, 0x1f	; 31
    33c0:	9c 93       	st	X, r25
    33c2:	5f 97       	sbiw	r26, 0x1f	; 31
    33c4:	1b 96       	adiw	r26, 0x0b	; 11
    33c6:	9c 91       	ld	r25, X
    33c8:	1b 97       	sbiw	r26, 0x0b	; 11
    33ca:	99 96       	adiw	r26, 0x29	; 41
    33cc:	9c 93       	st	X, r25
    33ce:	99 97       	sbiw	r26, 0x29	; 41
    33d0:	1b 96       	adiw	r26, 0x0b	; 11
    33d2:	8c 93       	st	X, r24
    33d4:	1b 97       	sbiw	r26, 0x0b	; 11
         quadraSwap(4,30,40,10);
    33d6:	14 96       	adiw	r26, 0x04	; 4
    33d8:	8c 91       	ld	r24, X
    33da:	14 97       	sbiw	r26, 0x04	; 4
    33dc:	5e 96       	adiw	r26, 0x1e	; 30
    33de:	9c 91       	ld	r25, X
    33e0:	5e 97       	sbiw	r26, 0x1e	; 30
    33e2:	14 96       	adiw	r26, 0x04	; 4
    33e4:	9c 93       	st	X, r25
    33e6:	14 97       	sbiw	r26, 0x04	; 4
    33e8:	98 96       	adiw	r26, 0x28	; 40
    33ea:	9c 91       	ld	r25, X
    33ec:	98 97       	sbiw	r26, 0x28	; 40
    33ee:	5e 96       	adiw	r26, 0x1e	; 30
    33f0:	9c 93       	st	X, r25
    33f2:	5e 97       	sbiw	r26, 0x1e	; 30
    33f4:	1a 96       	adiw	r26, 0x0a	; 10
    33f6:	9c 91       	ld	r25, X
    33f8:	1a 97       	sbiw	r26, 0x0a	; 10
    33fa:	98 96       	adiw	r26, 0x28	; 40
    33fc:	9c 93       	st	X, r25
    33fe:	98 97       	sbiw	r26, 0x28	; 40
    3400:	1a 96       	adiw	r26, 0x0a	; 10
    3402:	8c 93       	st	X, r24
         break;
    3404:	08 95       	ret
      case 6:// Right CW
         quadraSwap(24,30,28,26);
    3406:	58 96       	adiw	r26, 0x18	; 24
    3408:	8c 91       	ld	r24, X
    340a:	58 97       	sbiw	r26, 0x18	; 24
    340c:	5e 96       	adiw	r26, 0x1e	; 30
    340e:	9c 91       	ld	r25, X
    3410:	5e 97       	sbiw	r26, 0x1e	; 30
    3412:	58 96       	adiw	r26, 0x18	; 24
    3414:	9c 93       	st	X, r25
    3416:	58 97       	sbiw	r26, 0x18	; 24
    3418:	5c 96       	adiw	r26, 0x1c	; 28
    341a:	9c 91       	ld	r25, X
    341c:	5c 97       	sbiw	r26, 0x1c	; 28
    341e:	5e 96       	adiw	r26, 0x1e	; 30
    3420:	9c 93       	st	X, r25
    3422:	5e 97       	sbiw	r26, 0x1e	; 30
    3424:	5a 96       	adiw	r26, 0x1a	; 26
    3426:	9c 91       	ld	r25, X
    3428:	5a 97       	sbiw	r26, 0x1a	; 26
    342a:	5c 96       	adiw	r26, 0x1c	; 28
    342c:	9c 93       	st	X, r25
    342e:	5c 97       	sbiw	r26, 0x1c	; 28
    3430:	5a 96       	adiw	r26, 0x1a	; 26
    3432:	8c 93       	st	X, r24
    3434:	5a 97       	sbiw	r26, 0x1a	; 26
         quadraSwap(25,31,29,27);
    3436:	59 96       	adiw	r26, 0x19	; 25
    3438:	8c 91       	ld	r24, X
    343a:	59 97       	sbiw	r26, 0x19	; 25
    343c:	5f 96       	adiw	r26, 0x1f	; 31
    343e:	9c 91       	ld	r25, X
    3440:	5f 97       	sbiw	r26, 0x1f	; 31
    3442:	59 96       	adiw	r26, 0x19	; 25
    3444:	9c 93       	st	X, r25
    3446:	59 97       	sbiw	r26, 0x19	; 25
    3448:	5d 96       	adiw	r26, 0x1d	; 29
    344a:	9c 91       	ld	r25, X
    344c:	5d 97       	sbiw	r26, 0x1d	; 29
    344e:	5f 96       	adiw	r26, 0x1f	; 31
    3450:	9c 93       	st	X, r25
    3452:	5f 97       	sbiw	r26, 0x1f	; 31
    3454:	5b 96       	adiw	r26, 0x1b	; 27
    3456:	9c 91       	ld	r25, X
    3458:	5b 97       	sbiw	r26, 0x1b	; 27
    345a:	5d 96       	adiw	r26, 0x1d	; 29
    345c:	9c 93       	st	X, r25
    345e:	5d 97       	sbiw	r26, 0x1d	; 29
    3460:	5b 96       	adiw	r26, 0x1b	; 27
    3462:	8c 93       	st	X, r24
    3464:	5b 97       	sbiw	r26, 0x1b	; 27
         quadraSwap(4,20,44,32);
    3466:	14 96       	adiw	r26, 0x04	; 4
    3468:	8c 91       	ld	r24, X
    346a:	14 97       	sbiw	r26, 0x04	; 4
    346c:	54 96       	adiw	r26, 0x14	; 20
    346e:	9c 91       	ld	r25, X
    3470:	54 97       	sbiw	r26, 0x14	; 20
    3472:	14 96       	adiw	r26, 0x04	; 4
    3474:	9c 93       	st	X, r25
    3476:	14 97       	sbiw	r26, 0x04	; 4
    3478:	9c 96       	adiw	r26, 0x2c	; 44
    347a:	9c 91       	ld	r25, X
    347c:	9c 97       	sbiw	r26, 0x2c	; 44
    347e:	54 96       	adiw	r26, 0x14	; 20
    3480:	9c 93       	st	X, r25
    3482:	54 97       	sbiw	r26, 0x14	; 20
    3484:	90 96       	adiw	r26, 0x20	; 32
    3486:	9c 91       	ld	r25, X
    3488:	90 97       	sbiw	r26, 0x20	; 32
    348a:	9c 96       	adiw	r26, 0x2c	; 44
    348c:	9c 93       	st	X, r25
    348e:	9c 97       	sbiw	r26, 0x2c	; 44
    3490:	90 96       	adiw	r26, 0x20	; 32
    3492:	8c 93       	st	X, r24
    3494:	90 97       	sbiw	r26, 0x20	; 32
         quadraSwap(3,19,43,39);
    3496:	13 96       	adiw	r26, 0x03	; 3
    3498:	8c 91       	ld	r24, X
    349a:	13 97       	sbiw	r26, 0x03	; 3
    349c:	53 96       	adiw	r26, 0x13	; 19
    349e:	9c 91       	ld	r25, X
    34a0:	53 97       	sbiw	r26, 0x13	; 19
    34a2:	13 96       	adiw	r26, 0x03	; 3
    34a4:	9c 93       	st	X, r25
    34a6:	13 97       	sbiw	r26, 0x03	; 3
    34a8:	9b 96       	adiw	r26, 0x2b	; 43
    34aa:	9c 91       	ld	r25, X
    34ac:	9b 97       	sbiw	r26, 0x2b	; 43
    34ae:	53 96       	adiw	r26, 0x13	; 19
    34b0:	9c 93       	st	X, r25
    34b2:	53 97       	sbiw	r26, 0x13	; 19
    34b4:	97 96       	adiw	r26, 0x27	; 39
    34b6:	9c 91       	ld	r25, X
    34b8:	97 97       	sbiw	r26, 0x27	; 39
    34ba:	9b 96       	adiw	r26, 0x2b	; 43
    34bc:	9c 93       	st	X, r25
    34be:	9b 97       	sbiw	r26, 0x2b	; 43
    34c0:	97 96       	adiw	r26, 0x27	; 39
    34c2:	8c 93       	st	X, r24
    34c4:	97 97       	sbiw	r26, 0x27	; 39
         quadraSwap(2,18,42,38);
    34c6:	12 96       	adiw	r26, 0x02	; 2
    34c8:	8c 91       	ld	r24, X
    34ca:	12 97       	sbiw	r26, 0x02	; 2
    34cc:	52 96       	adiw	r26, 0x12	; 18
    34ce:	9c 91       	ld	r25, X
    34d0:	52 97       	sbiw	r26, 0x12	; 18
    34d2:	12 96       	adiw	r26, 0x02	; 2
    34d4:	9c 93       	st	X, r25
    34d6:	12 97       	sbiw	r26, 0x02	; 2
    34d8:	9a 96       	adiw	r26, 0x2a	; 42
    34da:	9c 91       	ld	r25, X
    34dc:	9a 97       	sbiw	r26, 0x2a	; 42
    34de:	52 96       	adiw	r26, 0x12	; 18
    34e0:	9c 93       	st	X, r25
    34e2:	52 97       	sbiw	r26, 0x12	; 18
    34e4:	96 96       	adiw	r26, 0x26	; 38
    34e6:	9c 91       	ld	r25, X
    34e8:	96 97       	sbiw	r26, 0x26	; 38
    34ea:	9a 96       	adiw	r26, 0x2a	; 42
    34ec:	9c 93       	st	X, r25
    34ee:	9a 97       	sbiw	r26, 0x2a	; 42
    34f0:	96 96       	adiw	r26, 0x26	; 38
    34f2:	8c 93       	st	X, r24
         break;
    34f4:	08 95       	ret
      case 7:// Right CCW
         quadraSwap(24,26,28,30);
    34f6:	58 96       	adiw	r26, 0x18	; 24
    34f8:	8c 91       	ld	r24, X
    34fa:	58 97       	sbiw	r26, 0x18	; 24
    34fc:	5a 96       	adiw	r26, 0x1a	; 26
    34fe:	9c 91       	ld	r25, X
    3500:	5a 97       	sbiw	r26, 0x1a	; 26
    3502:	58 96       	adiw	r26, 0x18	; 24
    3504:	9c 93       	st	X, r25
    3506:	58 97       	sbiw	r26, 0x18	; 24
    3508:	5c 96       	adiw	r26, 0x1c	; 28
    350a:	9c 91       	ld	r25, X
    350c:	5c 97       	sbiw	r26, 0x1c	; 28
    350e:	5a 96       	adiw	r26, 0x1a	; 26
    3510:	9c 93       	st	X, r25
    3512:	5a 97       	sbiw	r26, 0x1a	; 26
    3514:	5e 96       	adiw	r26, 0x1e	; 30
    3516:	9c 91       	ld	r25, X
    3518:	5e 97       	sbiw	r26, 0x1e	; 30
    351a:	5c 96       	adiw	r26, 0x1c	; 28
    351c:	9c 93       	st	X, r25
    351e:	5c 97       	sbiw	r26, 0x1c	; 28
    3520:	5e 96       	adiw	r26, 0x1e	; 30
    3522:	8c 93       	st	X, r24
    3524:	5e 97       	sbiw	r26, 0x1e	; 30
         quadraSwap(25,27,29,31);
    3526:	59 96       	adiw	r26, 0x19	; 25
    3528:	8c 91       	ld	r24, X
    352a:	59 97       	sbiw	r26, 0x19	; 25
    352c:	5b 96       	adiw	r26, 0x1b	; 27
    352e:	9c 91       	ld	r25, X
    3530:	5b 97       	sbiw	r26, 0x1b	; 27
    3532:	59 96       	adiw	r26, 0x19	; 25
    3534:	9c 93       	st	X, r25
    3536:	59 97       	sbiw	r26, 0x19	; 25
    3538:	5d 96       	adiw	r26, 0x1d	; 29
    353a:	9c 91       	ld	r25, X
    353c:	5d 97       	sbiw	r26, 0x1d	; 29
    353e:	5b 96       	adiw	r26, 0x1b	; 27
    3540:	9c 93       	st	X, r25
    3542:	5b 97       	sbiw	r26, 0x1b	; 27
    3544:	5f 96       	adiw	r26, 0x1f	; 31
    3546:	9c 91       	ld	r25, X
    3548:	5f 97       	sbiw	r26, 0x1f	; 31
    354a:	5d 96       	adiw	r26, 0x1d	; 29
    354c:	9c 93       	st	X, r25
    354e:	5d 97       	sbiw	r26, 0x1d	; 29
    3550:	5f 96       	adiw	r26, 0x1f	; 31
    3552:	8c 93       	st	X, r24
    3554:	5f 97       	sbiw	r26, 0x1f	; 31
         quadraSwap(4,32,44,20);
    3556:	14 96       	adiw	r26, 0x04	; 4
    3558:	8c 91       	ld	r24, X
    355a:	14 97       	sbiw	r26, 0x04	; 4
    355c:	90 96       	adiw	r26, 0x20	; 32
    355e:	9c 91       	ld	r25, X
    3560:	90 97       	sbiw	r26, 0x20	; 32
    3562:	14 96       	adiw	r26, 0x04	; 4
    3564:	9c 93       	st	X, r25
    3566:	14 97       	sbiw	r26, 0x04	; 4
    3568:	9c 96       	adiw	r26, 0x2c	; 44
    356a:	9c 91       	ld	r25, X
    356c:	9c 97       	sbiw	r26, 0x2c	; 44
    356e:	90 96       	adiw	r26, 0x20	; 32
    3570:	9c 93       	st	X, r25
    3572:	90 97       	sbiw	r26, 0x20	; 32
    3574:	54 96       	adiw	r26, 0x14	; 20
    3576:	9c 91       	ld	r25, X
    3578:	54 97       	sbiw	r26, 0x14	; 20
    357a:	9c 96       	adiw	r26, 0x2c	; 44
    357c:	9c 93       	st	X, r25
    357e:	9c 97       	sbiw	r26, 0x2c	; 44
    3580:	54 96       	adiw	r26, 0x14	; 20
    3582:	8c 93       	st	X, r24
    3584:	54 97       	sbiw	r26, 0x14	; 20
         quadraSwap(3,39,43,19);
    3586:	13 96       	adiw	r26, 0x03	; 3
    3588:	8c 91       	ld	r24, X
    358a:	13 97       	sbiw	r26, 0x03	; 3
    358c:	97 96       	adiw	r26, 0x27	; 39
    358e:	9c 91       	ld	r25, X
    3590:	97 97       	sbiw	r26, 0x27	; 39
    3592:	13 96       	adiw	r26, 0x03	; 3
    3594:	9c 93       	st	X, r25
    3596:	13 97       	sbiw	r26, 0x03	; 3
    3598:	9b 96       	adiw	r26, 0x2b	; 43
    359a:	9c 91       	ld	r25, X
    359c:	9b 97       	sbiw	r26, 0x2b	; 43
    359e:	97 96       	adiw	r26, 0x27	; 39
    35a0:	9c 93       	st	X, r25
    35a2:	97 97       	sbiw	r26, 0x27	; 39
    35a4:	53 96       	adiw	r26, 0x13	; 19
    35a6:	9c 91       	ld	r25, X
    35a8:	53 97       	sbiw	r26, 0x13	; 19
    35aa:	9b 96       	adiw	r26, 0x2b	; 43
    35ac:	9c 93       	st	X, r25
    35ae:	9b 97       	sbiw	r26, 0x2b	; 43
    35b0:	53 96       	adiw	r26, 0x13	; 19
    35b2:	8c 93       	st	X, r24
    35b4:	53 97       	sbiw	r26, 0x13	; 19
         quadraSwap(2,38,42,18);
    35b6:	12 96       	adiw	r26, 0x02	; 2
    35b8:	8c 91       	ld	r24, X
    35ba:	12 97       	sbiw	r26, 0x02	; 2
    35bc:	96 96       	adiw	r26, 0x26	; 38
    35be:	9c 91       	ld	r25, X
    35c0:	96 97       	sbiw	r26, 0x26	; 38
    35c2:	12 96       	adiw	r26, 0x02	; 2
    35c4:	9c 93       	st	X, r25
    35c6:	12 97       	sbiw	r26, 0x02	; 2
    35c8:	9a 96       	adiw	r26, 0x2a	; 42
    35ca:	9c 91       	ld	r25, X
    35cc:	9a 97       	sbiw	r26, 0x2a	; 42
    35ce:	96 96       	adiw	r26, 0x26	; 38
    35d0:	9c 93       	st	X, r25
    35d2:	96 97       	sbiw	r26, 0x26	; 38
    35d4:	52 96       	adiw	r26, 0x12	; 18
    35d6:	9c 91       	ld	r25, X
    35d8:	52 97       	sbiw	r26, 0x12	; 18
    35da:	9a 96       	adiw	r26, 0x2a	; 42
    35dc:	9c 93       	st	X, r25
    35de:	9a 97       	sbiw	r26, 0x2a	; 42
    35e0:	52 96       	adiw	r26, 0x12	; 18
    35e2:	8c 93       	st	X, r24
         break;
    35e4:	08 95       	ret
      case 8:// Back CW
         quadraSwap(32,38,36,34);
    35e6:	90 96       	adiw	r26, 0x20	; 32
    35e8:	8c 91       	ld	r24, X
    35ea:	90 97       	sbiw	r26, 0x20	; 32
    35ec:	96 96       	adiw	r26, 0x26	; 38
    35ee:	9c 91       	ld	r25, X
    35f0:	96 97       	sbiw	r26, 0x26	; 38
    35f2:	90 96       	adiw	r26, 0x20	; 32
    35f4:	9c 93       	st	X, r25
    35f6:	90 97       	sbiw	r26, 0x20	; 32
    35f8:	94 96       	adiw	r26, 0x24	; 36
    35fa:	9c 91       	ld	r25, X
    35fc:	94 97       	sbiw	r26, 0x24	; 36
    35fe:	96 96       	adiw	r26, 0x26	; 38
    3600:	9c 93       	st	X, r25
    3602:	96 97       	sbiw	r26, 0x26	; 38
    3604:	92 96       	adiw	r26, 0x22	; 34
    3606:	9c 91       	ld	r25, X
    3608:	92 97       	sbiw	r26, 0x22	; 34
    360a:	94 96       	adiw	r26, 0x24	; 36
    360c:	9c 93       	st	X, r25
    360e:	94 97       	sbiw	r26, 0x24	; 36
    3610:	92 96       	adiw	r26, 0x22	; 34
    3612:	8c 93       	st	X, r24
    3614:	92 97       	sbiw	r26, 0x22	; 34
         quadraSwap(33,39,37,35);
    3616:	91 96       	adiw	r26, 0x21	; 33
    3618:	8c 91       	ld	r24, X
    361a:	91 97       	sbiw	r26, 0x21	; 33
    361c:	97 96       	adiw	r26, 0x27	; 39
    361e:	9c 91       	ld	r25, X
    3620:	97 97       	sbiw	r26, 0x27	; 39
    3622:	91 96       	adiw	r26, 0x21	; 33
    3624:	9c 93       	st	X, r25
    3626:	91 97       	sbiw	r26, 0x21	; 33
    3628:	95 96       	adiw	r26, 0x25	; 37
    362a:	9c 91       	ld	r25, X
    362c:	95 97       	sbiw	r26, 0x25	; 37
    362e:	97 96       	adiw	r26, 0x27	; 39
    3630:	9c 93       	st	X, r25
    3632:	97 97       	sbiw	r26, 0x27	; 39
    3634:	93 96       	adiw	r26, 0x23	; 35
    3636:	9c 91       	ld	r25, X
    3638:	93 97       	sbiw	r26, 0x23	; 35
    363a:	95 96       	adiw	r26, 0x25	; 37
    363c:	9c 93       	st	X, r25
    363e:	95 97       	sbiw	r26, 0x25	; 37
    3640:	93 96       	adiw	r26, 0x23	; 35
    3642:	8c 93       	st	X, r24
    3644:	93 97       	sbiw	r26, 0x23	; 35
         quadraSwap(2,28,46,8);
    3646:	12 96       	adiw	r26, 0x02	; 2
    3648:	8c 91       	ld	r24, X
    364a:	12 97       	sbiw	r26, 0x02	; 2
    364c:	5c 96       	adiw	r26, 0x1c	; 28
    364e:	9c 91       	ld	r25, X
    3650:	5c 97       	sbiw	r26, 0x1c	; 28
    3652:	12 96       	adiw	r26, 0x02	; 2
    3654:	9c 93       	st	X, r25
    3656:	12 97       	sbiw	r26, 0x02	; 2
    3658:	9e 96       	adiw	r26, 0x2e	; 46
    365a:	9c 91       	ld	r25, X
    365c:	9e 97       	sbiw	r26, 0x2e	; 46
    365e:	5c 96       	adiw	r26, 0x1c	; 28
    3660:	9c 93       	st	X, r25
    3662:	5c 97       	sbiw	r26, 0x1c	; 28
    3664:	18 96       	adiw	r26, 0x08	; 8
    3666:	9c 91       	ld	r25, X
    3668:	18 97       	sbiw	r26, 0x08	; 8
    366a:	9e 96       	adiw	r26, 0x2e	; 46
    366c:	9c 93       	st	X, r25
    366e:	9e 97       	sbiw	r26, 0x2e	; 46
    3670:	18 96       	adiw	r26, 0x08	; 8
    3672:	8c 93       	st	X, r24
    3674:	18 97       	sbiw	r26, 0x08	; 8
         quadraSwap(1,27,45,15);
    3676:	11 96       	adiw	r26, 0x01	; 1
    3678:	8c 91       	ld	r24, X
    367a:	11 97       	sbiw	r26, 0x01	; 1
    367c:	5b 96       	adiw	r26, 0x1b	; 27
    367e:	9c 91       	ld	r25, X
    3680:	5b 97       	sbiw	r26, 0x1b	; 27
    3682:	11 96       	adiw	r26, 0x01	; 1
    3684:	9c 93       	st	X, r25
    3686:	11 97       	sbiw	r26, 0x01	; 1
    3688:	9d 96       	adiw	r26, 0x2d	; 45
    368a:	9c 91       	ld	r25, X
    368c:	9d 97       	sbiw	r26, 0x2d	; 45
    368e:	5b 96       	adiw	r26, 0x1b	; 27
    3690:	9c 93       	st	X, r25
    3692:	5b 97       	sbiw	r26, 0x1b	; 27
    3694:	1f 96       	adiw	r26, 0x0f	; 15
    3696:	9c 91       	ld	r25, X
    3698:	1f 97       	sbiw	r26, 0x0f	; 15
    369a:	9d 96       	adiw	r26, 0x2d	; 45
    369c:	9c 93       	st	X, r25
    369e:	9d 97       	sbiw	r26, 0x2d	; 45
    36a0:	1f 96       	adiw	r26, 0x0f	; 15
    36a2:	8c 93       	st	X, r24
    36a4:	1f 97       	sbiw	r26, 0x0f	; 15
         quadraSwap(0,26,44,14);
    36a6:	8c 91       	ld	r24, X
    36a8:	5a 96       	adiw	r26, 0x1a	; 26
    36aa:	9c 91       	ld	r25, X
    36ac:	5a 97       	sbiw	r26, 0x1a	; 26
    36ae:	9c 93       	st	X, r25
    36b0:	9c 96       	adiw	r26, 0x2c	; 44
    36b2:	9c 91       	ld	r25, X
    36b4:	9c 97       	sbiw	r26, 0x2c	; 44
    36b6:	5a 96       	adiw	r26, 0x1a	; 26
    36b8:	9c 93       	st	X, r25
    36ba:	5a 97       	sbiw	r26, 0x1a	; 26
    36bc:	1e 96       	adiw	r26, 0x0e	; 14
    36be:	9c 91       	ld	r25, X
    36c0:	1e 97       	sbiw	r26, 0x0e	; 14
    36c2:	9c 96       	adiw	r26, 0x2c	; 44
    36c4:	9c 93       	st	X, r25
    36c6:	9c 97       	sbiw	r26, 0x2c	; 44
    36c8:	1e 96       	adiw	r26, 0x0e	; 14
    36ca:	8c 93       	st	X, r24
         break;
    36cc:	08 95       	ret
      case 9:// Back CCW
         quadraSwap(32,34,36,38);
    36ce:	90 96       	adiw	r26, 0x20	; 32
    36d0:	8c 91       	ld	r24, X
    36d2:	90 97       	sbiw	r26, 0x20	; 32
    36d4:	92 96       	adiw	r26, 0x22	; 34
    36d6:	9c 91       	ld	r25, X
    36d8:	92 97       	sbiw	r26, 0x22	; 34
    36da:	90 96       	adiw	r26, 0x20	; 32
    36dc:	9c 93       	st	X, r25
    36de:	90 97       	sbiw	r26, 0x20	; 32
    36e0:	94 96       	adiw	r26, 0x24	; 36
    36e2:	9c 91       	ld	r25, X
    36e4:	94 97       	sbiw	r26, 0x24	; 36
    36e6:	92 96       	adiw	r26, 0x22	; 34
    36e8:	9c 93       	st	X, r25
    36ea:	92 97       	sbiw	r26, 0x22	; 34
    36ec:	96 96       	adiw	r26, 0x26	; 38
    36ee:	9c 91       	ld	r25, X
    36f0:	96 97       	sbiw	r26, 0x26	; 38
    36f2:	94 96       	adiw	r26, 0x24	; 36
    36f4:	9c 93       	st	X, r25
    36f6:	94 97       	sbiw	r26, 0x24	; 36
    36f8:	96 96       	adiw	r26, 0x26	; 38
    36fa:	8c 93       	st	X, r24
    36fc:	96 97       	sbiw	r26, 0x26	; 38
         quadraSwap(33,35,37,39);
    36fe:	91 96       	adiw	r26, 0x21	; 33
    3700:	8c 91       	ld	r24, X
    3702:	91 97       	sbiw	r26, 0x21	; 33
    3704:	93 96       	adiw	r26, 0x23	; 35
    3706:	9c 91       	ld	r25, X
    3708:	93 97       	sbiw	r26, 0x23	; 35
    370a:	91 96       	adiw	r26, 0x21	; 33
    370c:	9c 93       	st	X, r25
    370e:	91 97       	sbiw	r26, 0x21	; 33
    3710:	95 96       	adiw	r26, 0x25	; 37
    3712:	9c 91       	ld	r25, X
    3714:	95 97       	sbiw	r26, 0x25	; 37
    3716:	93 96       	adiw	r26, 0x23	; 35
    3718:	9c 93       	st	X, r25
    371a:	93 97       	sbiw	r26, 0x23	; 35
    371c:	97 96       	adiw	r26, 0x27	; 39
    371e:	9c 91       	ld	r25, X
    3720:	97 97       	sbiw	r26, 0x27	; 39
    3722:	95 96       	adiw	r26, 0x25	; 37
    3724:	9c 93       	st	X, r25
    3726:	95 97       	sbiw	r26, 0x25	; 37
    3728:	97 96       	adiw	r26, 0x27	; 39
    372a:	8c 93       	st	X, r24
    372c:	97 97       	sbiw	r26, 0x27	; 39
         quadraSwap(2,8,46,28);
    372e:	12 96       	adiw	r26, 0x02	; 2
    3730:	8c 91       	ld	r24, X
    3732:	12 97       	sbiw	r26, 0x02	; 2
    3734:	18 96       	adiw	r26, 0x08	; 8
    3736:	9c 91       	ld	r25, X
    3738:	18 97       	sbiw	r26, 0x08	; 8
    373a:	12 96       	adiw	r26, 0x02	; 2
    373c:	9c 93       	st	X, r25
    373e:	12 97       	sbiw	r26, 0x02	; 2
    3740:	9e 96       	adiw	r26, 0x2e	; 46
    3742:	9c 91       	ld	r25, X
    3744:	9e 97       	sbiw	r26, 0x2e	; 46
    3746:	18 96       	adiw	r26, 0x08	; 8
    3748:	9c 93       	st	X, r25
    374a:	18 97       	sbiw	r26, 0x08	; 8
    374c:	5c 96       	adiw	r26, 0x1c	; 28
    374e:	9c 91       	ld	r25, X
    3750:	5c 97       	sbiw	r26, 0x1c	; 28
    3752:	9e 96       	adiw	r26, 0x2e	; 46
    3754:	9c 93       	st	X, r25
    3756:	9e 97       	sbiw	r26, 0x2e	; 46
    3758:	5c 96       	adiw	r26, 0x1c	; 28
    375a:	8c 93       	st	X, r24
    375c:	5c 97       	sbiw	r26, 0x1c	; 28
         quadraSwap(1,15,45,27);
    375e:	11 96       	adiw	r26, 0x01	; 1
    3760:	8c 91       	ld	r24, X
    3762:	11 97       	sbiw	r26, 0x01	; 1
    3764:	1f 96       	adiw	r26, 0x0f	; 15
    3766:	9c 91       	ld	r25, X
    3768:	1f 97       	sbiw	r26, 0x0f	; 15
    376a:	11 96       	adiw	r26, 0x01	; 1
    376c:	9c 93       	st	X, r25
    376e:	11 97       	sbiw	r26, 0x01	; 1
    3770:	9d 96       	adiw	r26, 0x2d	; 45
    3772:	9c 91       	ld	r25, X
    3774:	9d 97       	sbiw	r26, 0x2d	; 45
    3776:	1f 96       	adiw	r26, 0x0f	; 15
    3778:	9c 93       	st	X, r25
    377a:	1f 97       	sbiw	r26, 0x0f	; 15
    377c:	5b 96       	adiw	r26, 0x1b	; 27
    377e:	9c 91       	ld	r25, X
    3780:	5b 97       	sbiw	r26, 0x1b	; 27
    3782:	9d 96       	adiw	r26, 0x2d	; 45
    3784:	9c 93       	st	X, r25
    3786:	9d 97       	sbiw	r26, 0x2d	; 45
    3788:	5b 96       	adiw	r26, 0x1b	; 27
    378a:	8c 93       	st	X, r24
    378c:	5b 97       	sbiw	r26, 0x1b	; 27
         quadraSwap(0,14,44,26);
    378e:	8c 91       	ld	r24, X
    3790:	1e 96       	adiw	r26, 0x0e	; 14
    3792:	9c 91       	ld	r25, X
    3794:	1e 97       	sbiw	r26, 0x0e	; 14
    3796:	9c 93       	st	X, r25
    3798:	9c 96       	adiw	r26, 0x2c	; 44
    379a:	9c 91       	ld	r25, X
    379c:	9c 97       	sbiw	r26, 0x2c	; 44
    379e:	1e 96       	adiw	r26, 0x0e	; 14
    37a0:	9c 93       	st	X, r25
    37a2:	1e 97       	sbiw	r26, 0x0e	; 14
    37a4:	5a 96       	adiw	r26, 0x1a	; 26
    37a6:	9c 91       	ld	r25, X
    37a8:	5a 97       	sbiw	r26, 0x1a	; 26
    37aa:	9c 96       	adiw	r26, 0x2c	; 44
    37ac:	9c 93       	st	X, r25
    37ae:	9c 97       	sbiw	r26, 0x2c	; 44
    37b0:	5a 96       	adiw	r26, 0x1a	; 26
    37b2:	8c 93       	st	X, r24
         break;
    37b4:	08 95       	ret
      case 10:// Down CW
         quadraSwap(40,46,44,42);
    37b6:	98 96       	adiw	r26, 0x28	; 40
    37b8:	8c 91       	ld	r24, X
    37ba:	98 97       	sbiw	r26, 0x28	; 40
    37bc:	9e 96       	adiw	r26, 0x2e	; 46
    37be:	9c 91       	ld	r25, X
    37c0:	9e 97       	sbiw	r26, 0x2e	; 46
    37c2:	98 96       	adiw	r26, 0x28	; 40
    37c4:	9c 93       	st	X, r25
    37c6:	98 97       	sbiw	r26, 0x28	; 40
    37c8:	9c 96       	adiw	r26, 0x2c	; 44
    37ca:	9c 91       	ld	r25, X
    37cc:	9c 97       	sbiw	r26, 0x2c	; 44
    37ce:	9e 96       	adiw	r26, 0x2e	; 46
    37d0:	9c 93       	st	X, r25
    37d2:	9e 97       	sbiw	r26, 0x2e	; 46
    37d4:	9a 96       	adiw	r26, 0x2a	; 42
    37d6:	9c 91       	ld	r25, X
    37d8:	9a 97       	sbiw	r26, 0x2a	; 42
    37da:	9c 96       	adiw	r26, 0x2c	; 44
    37dc:	9c 93       	st	X, r25
    37de:	9c 97       	sbiw	r26, 0x2c	; 44
    37e0:	9a 96       	adiw	r26, 0x2a	; 42
    37e2:	8c 93       	st	X, r24
    37e4:	9a 97       	sbiw	r26, 0x2a	; 42
         quadraSwap(41,47,45,43);
    37e6:	99 96       	adiw	r26, 0x29	; 41
    37e8:	8c 91       	ld	r24, X
    37ea:	99 97       	sbiw	r26, 0x29	; 41
    37ec:	9f 96       	adiw	r26, 0x2f	; 47
    37ee:	9c 91       	ld	r25, X
    37f0:	9f 97       	sbiw	r26, 0x2f	; 47
    37f2:	99 96       	adiw	r26, 0x29	; 41
    37f4:	9c 93       	st	X, r25
    37f6:	99 97       	sbiw	r26, 0x29	; 41
    37f8:	9d 96       	adiw	r26, 0x2d	; 45
    37fa:	9c 91       	ld	r25, X
    37fc:	9d 97       	sbiw	r26, 0x2d	; 45
    37fe:	9f 96       	adiw	r26, 0x2f	; 47
    3800:	9c 93       	st	X, r25
    3802:	9f 97       	sbiw	r26, 0x2f	; 47
    3804:	9b 96       	adiw	r26, 0x2b	; 43
    3806:	9c 91       	ld	r25, X
    3808:	9b 97       	sbiw	r26, 0x2b	; 43
    380a:	9d 96       	adiw	r26, 0x2d	; 45
    380c:	9c 93       	st	X, r25
    380e:	9d 97       	sbiw	r26, 0x2d	; 45
    3810:	9b 96       	adiw	r26, 0x2b	; 43
    3812:	8c 93       	st	X, r24
    3814:	9b 97       	sbiw	r26, 0x2b	; 43
         quadraSwap(22,14,38,30);
    3816:	56 96       	adiw	r26, 0x16	; 22
    3818:	8c 91       	ld	r24, X
    381a:	56 97       	sbiw	r26, 0x16	; 22
    381c:	1e 96       	adiw	r26, 0x0e	; 14
    381e:	9c 91       	ld	r25, X
    3820:	1e 97       	sbiw	r26, 0x0e	; 14
    3822:	56 96       	adiw	r26, 0x16	; 22
    3824:	9c 93       	st	X, r25
    3826:	56 97       	sbiw	r26, 0x16	; 22
    3828:	96 96       	adiw	r26, 0x26	; 38
    382a:	9c 91       	ld	r25, X
    382c:	96 97       	sbiw	r26, 0x26	; 38
    382e:	1e 96       	adiw	r26, 0x0e	; 14
    3830:	9c 93       	st	X, r25
    3832:	1e 97       	sbiw	r26, 0x0e	; 14
    3834:	5e 96       	adiw	r26, 0x1e	; 30
    3836:	9c 91       	ld	r25, X
    3838:	5e 97       	sbiw	r26, 0x1e	; 30
    383a:	96 96       	adiw	r26, 0x26	; 38
    383c:	9c 93       	st	X, r25
    383e:	96 97       	sbiw	r26, 0x26	; 38
    3840:	5e 96       	adiw	r26, 0x1e	; 30
    3842:	8c 93       	st	X, r24
    3844:	5e 97       	sbiw	r26, 0x1e	; 30
         quadraSwap(21,13,37,29);
    3846:	55 96       	adiw	r26, 0x15	; 21
    3848:	8c 91       	ld	r24, X
    384a:	55 97       	sbiw	r26, 0x15	; 21
    384c:	1d 96       	adiw	r26, 0x0d	; 13
    384e:	9c 91       	ld	r25, X
    3850:	1d 97       	sbiw	r26, 0x0d	; 13
    3852:	55 96       	adiw	r26, 0x15	; 21
    3854:	9c 93       	st	X, r25
    3856:	55 97       	sbiw	r26, 0x15	; 21
    3858:	95 96       	adiw	r26, 0x25	; 37
    385a:	9c 91       	ld	r25, X
    385c:	95 97       	sbiw	r26, 0x25	; 37
    385e:	1d 96       	adiw	r26, 0x0d	; 13
    3860:	9c 93       	st	X, r25
    3862:	1d 97       	sbiw	r26, 0x0d	; 13
    3864:	5d 96       	adiw	r26, 0x1d	; 29
    3866:	9c 91       	ld	r25, X
    3868:	5d 97       	sbiw	r26, 0x1d	; 29
    386a:	95 96       	adiw	r26, 0x25	; 37
    386c:	9c 93       	st	X, r25
    386e:	95 97       	sbiw	r26, 0x25	; 37
    3870:	5d 96       	adiw	r26, 0x1d	; 29
    3872:	8c 93       	st	X, r24
    3874:	5d 97       	sbiw	r26, 0x1d	; 29
         quadraSwap(20,12,36,28);
    3876:	54 96       	adiw	r26, 0x14	; 20
    3878:	8c 91       	ld	r24, X
    387a:	54 97       	sbiw	r26, 0x14	; 20
    387c:	1c 96       	adiw	r26, 0x0c	; 12
    387e:	9c 91       	ld	r25, X
    3880:	1c 97       	sbiw	r26, 0x0c	; 12
    3882:	54 96       	adiw	r26, 0x14	; 20
    3884:	9c 93       	st	X, r25
    3886:	54 97       	sbiw	r26, 0x14	; 20
    3888:	94 96       	adiw	r26, 0x24	; 36
    388a:	9c 91       	ld	r25, X
    388c:	94 97       	sbiw	r26, 0x24	; 36
    388e:	1c 96       	adiw	r26, 0x0c	; 12
    3890:	9c 93       	st	X, r25
    3892:	1c 97       	sbiw	r26, 0x0c	; 12
    3894:	5c 96       	adiw	r26, 0x1c	; 28
    3896:	9c 91       	ld	r25, X
    3898:	5c 97       	sbiw	r26, 0x1c	; 28
    389a:	94 96       	adiw	r26, 0x24	; 36
    389c:	9c 93       	st	X, r25
    389e:	94 97       	sbiw	r26, 0x24	; 36
    38a0:	5c 96       	adiw	r26, 0x1c	; 28
    38a2:	8c 93       	st	X, r24
         break;
    38a4:	08 95       	ret
      case 11:// Down CCW
         quadraSwap(40,42,44,46);
    38a6:	98 96       	adiw	r26, 0x28	; 40
    38a8:	8c 91       	ld	r24, X
    38aa:	98 97       	sbiw	r26, 0x28	; 40
    38ac:	9a 96       	adiw	r26, 0x2a	; 42
    38ae:	9c 91       	ld	r25, X
    38b0:	9a 97       	sbiw	r26, 0x2a	; 42
    38b2:	98 96       	adiw	r26, 0x28	; 40
    38b4:	9c 93       	st	X, r25
    38b6:	98 97       	sbiw	r26, 0x28	; 40
    38b8:	9c 96       	adiw	r26, 0x2c	; 44
    38ba:	9c 91       	ld	r25, X
    38bc:	9c 97       	sbiw	r26, 0x2c	; 44
    38be:	9a 96       	adiw	r26, 0x2a	; 42
    38c0:	9c 93       	st	X, r25
    38c2:	9a 97       	sbiw	r26, 0x2a	; 42
    38c4:	9e 96       	adiw	r26, 0x2e	; 46
    38c6:	9c 91       	ld	r25, X
    38c8:	9e 97       	sbiw	r26, 0x2e	; 46
    38ca:	9c 96       	adiw	r26, 0x2c	; 44
    38cc:	9c 93       	st	X, r25
    38ce:	9c 97       	sbiw	r26, 0x2c	; 44
    38d0:	9e 96       	adiw	r26, 0x2e	; 46
    38d2:	8c 93       	st	X, r24
    38d4:	9e 97       	sbiw	r26, 0x2e	; 46
         quadraSwap(41,43,45,47);
    38d6:	99 96       	adiw	r26, 0x29	; 41
    38d8:	8c 91       	ld	r24, X
    38da:	99 97       	sbiw	r26, 0x29	; 41
    38dc:	9b 96       	adiw	r26, 0x2b	; 43
    38de:	9c 91       	ld	r25, X
    38e0:	9b 97       	sbiw	r26, 0x2b	; 43
    38e2:	99 96       	adiw	r26, 0x29	; 41
    38e4:	9c 93       	st	X, r25
    38e6:	99 97       	sbiw	r26, 0x29	; 41
    38e8:	9d 96       	adiw	r26, 0x2d	; 45
    38ea:	9c 91       	ld	r25, X
    38ec:	9d 97       	sbiw	r26, 0x2d	; 45
    38ee:	9b 96       	adiw	r26, 0x2b	; 43
    38f0:	9c 93       	st	X, r25
    38f2:	9b 97       	sbiw	r26, 0x2b	; 43
    38f4:	9f 96       	adiw	r26, 0x2f	; 47
    38f6:	9c 91       	ld	r25, X
    38f8:	9f 97       	sbiw	r26, 0x2f	; 47
    38fa:	9d 96       	adiw	r26, 0x2d	; 45
    38fc:	9c 93       	st	X, r25
    38fe:	9d 97       	sbiw	r26, 0x2d	; 45
    3900:	9f 96       	adiw	r26, 0x2f	; 47
    3902:	8c 93       	st	X, r24
    3904:	9f 97       	sbiw	r26, 0x2f	; 47
         quadraSwap(22,30,38,14);
    3906:	56 96       	adiw	r26, 0x16	; 22
    3908:	8c 91       	ld	r24, X
    390a:	56 97       	sbiw	r26, 0x16	; 22
    390c:	5e 96       	adiw	r26, 0x1e	; 30
    390e:	9c 91       	ld	r25, X
    3910:	5e 97       	sbiw	r26, 0x1e	; 30
    3912:	56 96       	adiw	r26, 0x16	; 22
    3914:	9c 93       	st	X, r25
    3916:	56 97       	sbiw	r26, 0x16	; 22
    3918:	96 96       	adiw	r26, 0x26	; 38
    391a:	9c 91       	ld	r25, X
    391c:	96 97       	sbiw	r26, 0x26	; 38
    391e:	5e 96       	adiw	r26, 0x1e	; 30
    3920:	9c 93       	st	X, r25
    3922:	5e 97       	sbiw	r26, 0x1e	; 30
    3924:	1e 96       	adiw	r26, 0x0e	; 14
    3926:	9c 91       	ld	r25, X
    3928:	1e 97       	sbiw	r26, 0x0e	; 14
    392a:	96 96       	adiw	r26, 0x26	; 38
    392c:	9c 93       	st	X, r25
    392e:	96 97       	sbiw	r26, 0x26	; 38
    3930:	1e 96       	adiw	r26, 0x0e	; 14
    3932:	8c 93       	st	X, r24
    3934:	1e 97       	sbiw	r26, 0x0e	; 14
         quadraSwap(21,29,37,13);
    3936:	55 96       	adiw	r26, 0x15	; 21
    3938:	8c 91       	ld	r24, X
    393a:	55 97       	sbiw	r26, 0x15	; 21
    393c:	5d 96       	adiw	r26, 0x1d	; 29
    393e:	9c 91       	ld	r25, X
    3940:	5d 97       	sbiw	r26, 0x1d	; 29
    3942:	55 96       	adiw	r26, 0x15	; 21
    3944:	9c 93       	st	X, r25
    3946:	55 97       	sbiw	r26, 0x15	; 21
    3948:	95 96       	adiw	r26, 0x25	; 37
    394a:	9c 91       	ld	r25, X
    394c:	95 97       	sbiw	r26, 0x25	; 37
    394e:	5d 96       	adiw	r26, 0x1d	; 29
    3950:	9c 93       	st	X, r25
    3952:	5d 97       	sbiw	r26, 0x1d	; 29
    3954:	1d 96       	adiw	r26, 0x0d	; 13
    3956:	9c 91       	ld	r25, X
    3958:	1d 97       	sbiw	r26, 0x0d	; 13
    395a:	95 96       	adiw	r26, 0x25	; 37
    395c:	9c 93       	st	X, r25
    395e:	95 97       	sbiw	r26, 0x25	; 37
    3960:	1d 96       	adiw	r26, 0x0d	; 13
    3962:	8c 93       	st	X, r24
    3964:	1d 97       	sbiw	r26, 0x0d	; 13
         quadraSwap(20,28,36,12);
    3966:	54 96       	adiw	r26, 0x14	; 20
    3968:	8c 91       	ld	r24, X
    396a:	54 97       	sbiw	r26, 0x14	; 20
    396c:	5c 96       	adiw	r26, 0x1c	; 28
    396e:	9c 91       	ld	r25, X
    3970:	5c 97       	sbiw	r26, 0x1c	; 28
    3972:	54 96       	adiw	r26, 0x14	; 20
    3974:	9c 93       	st	X, r25
    3976:	54 97       	sbiw	r26, 0x14	; 20
    3978:	94 96       	adiw	r26, 0x24	; 36
    397a:	9c 91       	ld	r25, X
    397c:	94 97       	sbiw	r26, 0x24	; 36
    397e:	5c 96       	adiw	r26, 0x1c	; 28
    3980:	9c 93       	st	X, r25
    3982:	5c 97       	sbiw	r26, 0x1c	; 28
    3984:	1c 96       	adiw	r26, 0x0c	; 12
    3986:	9c 91       	ld	r25, X
    3988:	1c 97       	sbiw	r26, 0x0c	; 12
    398a:	94 96       	adiw	r26, 0x24	; 36
    398c:	9c 93       	st	X, r25
    398e:	94 97       	sbiw	r26, 0x24	; 36
    3990:	1c 96       	adiw	r26, 0x0c	; 12
    3992:	8c 93       	st	X, r24
    3994:	08 95       	ret

00003996 <solve_enhanced>:
	{38, 29, 12, 22, 21, 36, 14, 37, 20, 30, 13, 28,   3, 3, 0, 9, 10, 9, 11, 8, 1, 2, 2, 5, 10, 4, -1},//X
	{30, 37, 12, 22, 21, 28, 38, 13, 36, 14, 29, 20,   5, 11, 4, 2, 2, 0, 9, 10, 8, 11, 8, 1, 2, 2, -1},//X
	{14, 29, 20, 30, 13, 28, 38, 21, 12, 22, 37, 36,   3, 3, 1, 4, 11, 4, 10, 5, 0, 2, 2, 8, 11, 9, -1},//20//X
	{14, 21, 28, 38, 29, 12, 22, 13, 20, 30, 37, 36,   8, 10, 9, 2, 2, 1, 4, 11, 5, 10, 5, 0, 2, 2, -1}//X
};
char solve_enhanced(uint8_t *v, int8_t *s){
    3996:	7f 92       	push	r7
    3998:	8f 92       	push	r8
    399a:	9f 92       	push	r9
    399c:	af 92       	push	r10
    399e:	bf 92       	push	r11
    39a0:	cf 92       	push	r12
    39a2:	df 92       	push	r13
    39a4:	ef 92       	push	r14
    39a6:	ff 92       	push	r15
    39a8:	0f 93       	push	r16
    39aa:	1f 93       	push	r17
    39ac:	cf 93       	push	r28
    39ae:	df 93       	push	r29
    39b0:	cd b7       	in	r28, 0x3d	; 61
    39b2:	de b7       	in	r29, 0x3e	; 62
    39b4:	c2 55       	subi	r28, 0x52	; 82
    39b6:	d1 09       	sbc	r29, r1
    39b8:	0f b6       	in	r0, 0x3f	; 63
    39ba:	f8 94       	cli
    39bc:	de bf       	out	0x3e, r29	; 62
    39be:	0f be       	out	0x3f, r0	; 63
    39c0:	cd bf       	out	0x3d, r28	; 61
    39c2:	fc 01       	movw	r30, r24
    39c4:	8b 01       	movw	r16, r22
	unsigned int max = MAX_JOGADAS;
	//Tamanho da funo: 448 + 480 + 468 + 1740 + 726 = 3862
	uint8_t a, b, cw;
	//Condies: 1:2 e 3:4 ento adicionar  S 5...[-1]
	uint8_t k[48];
	memcpy(k, v, 48);
    39c6:	90 e3       	ldi	r25, 0x30	; 48
    39c8:	de 01       	movw	r26, r28
    39ca:	11 96       	adiw	r26, 0x01	; 1
    39cc:	01 90       	ld	r0, Z+
    39ce:	0d 92       	st	X+, r0
    39d0:	9a 95       	dec	r25
    39d2:	e1 f7       	brne	.-8      	; 0x39cc <solve_enhanced+0x36>
	//------CRUZ--------------
#ifdef VERBOSE
	putStr(" CROSS ");
	printInt(max);
#endif
	a = 0;
    39d4:	20 e0       	ldi	r18, 0x00	; 0
	{30, 37, 12, 22, 21, 28, 38, 13, 36, 14, 29, 20,   5, 11, 4, 2, 2, 0, 9, 10, 8, 11, 8, 1, 2, 2, -1},//X
	{14, 29, 20, 30, 13, 28, 38, 21, 12, 22, 37, 36,   3, 3, 1, 4, 11, 4, 10, 5, 0, 2, 2, 8, 11, 9, -1},//20//X
	{14, 21, 28, 38, 29, 12, 22, 13, 20, 30, 37, 36,   8, 10, 9, 2, 2, 1, 4, 11, 5, 10, 5, 0, 2, 2, -1}//X
};
char solve_enhanced(uint8_t *v, int8_t *s){
	unsigned int max = MAX_JOGADAS;
    39d6:	ba ef       	ldi	r27, 0xFA	; 250
    39d8:	eb 2e       	mov	r14, r27
    39da:	f1 2c       	mov	r15, r1
    39dc:	84 e0       	ldi	r24, 0x04	; 4
    39de:	b8 2e       	mov	r11, r24
	printInt(max);
#endif
	a = 0;
	while(a<56){
		int8_t cruz[8];
		memcpy_P(cruz, _CRUZ[a], 8); 
    39e0:	88 e0       	ldi	r24, 0x08	; 8
    39e2:	28 9f       	mul	r18, r24
    39e4:	b0 01       	movw	r22, r0
    39e6:	11 24       	eor	r1, r1
    39e8:	62 5f       	subi	r22, 0xF2	; 242
    39ea:	71 4f       	sbci	r23, 0xF1	; 241
    39ec:	48 e0       	ldi	r20, 0x08	; 8
    39ee:	50 e0       	ldi	r21, 0x00	; 0
    39f0:	ce 01       	movw	r24, r28
    39f2:	c1 96       	adiw	r24, 0x31	; 49
    39f4:	63 96       	adiw	r28, 0x13	; 19
    39f6:	2f af       	std	Y+63, r18	; 0x3f
    39f8:	63 97       	sbiw	r28, 0x13	; 19
    39fa:	0e 94 6d 25 	call	0x4ada	; 0x4ada <memcpy_P>
		if( (!cruz[1] && k[cruz[0]]==0 && k[cruz[2]]==cruz[3])||
    39fe:	9a a9       	ldd	r25, Y+50	; 0x32
    3a00:	89 a9       	ldd	r24, Y+49	; 0x31
    3a02:	63 96       	adiw	r28, 0x13	; 19
    3a04:	2f ad       	ldd	r18, Y+63	; 0x3f
    3a06:	63 97       	sbiw	r28, 0x13	; 19
    3a08:	e1 e0       	ldi	r30, 0x01	; 1
    3a0a:	f0 e0       	ldi	r31, 0x00	; 0
    3a0c:	ec 0f       	add	r30, r28
    3a0e:	fd 1f       	adc	r31, r29
    3a10:	e8 0f       	add	r30, r24
    3a12:	f1 1d       	adc	r31, r1
    3a14:	87 fd       	sbrc	r24, 7
    3a16:	fa 95       	dec	r31
    3a18:	80 81       	ld	r24, Z
    3a1a:	91 11       	cpse	r25, r1
    3a1c:	18 c0       	rjmp	.+48     	; 0x3a4e <solve_enhanced+0xb8>
    3a1e:	81 11       	cpse	r24, r1
    3a20:	44 c0       	rjmp	.+136    	; 0x3aaa <solve_enhanced+0x114>
    3a22:	8b a9       	ldd	r24, Y+51	; 0x33
    3a24:	e1 e0       	ldi	r30, 0x01	; 1
    3a26:	f0 e0       	ldi	r31, 0x00	; 0
    3a28:	ec 0f       	add	r30, r28
    3a2a:	fd 1f       	adc	r31, r29
    3a2c:	e8 0f       	add	r30, r24
    3a2e:	f1 1d       	adc	r31, r1
    3a30:	87 fd       	sbrc	r24, 7
    3a32:	fa 95       	dec	r31
    3a34:	40 81       	ld	r20, Z
    3a36:	50 e0       	ldi	r21, 0x00	; 0
    3a38:	8c a9       	ldd	r24, Y+52	; 0x34
    3a3a:	08 2e       	mov	r0, r24
    3a3c:	00 0c       	add	r0, r0
    3a3e:	99 0b       	sbc	r25, r25
    3a40:	48 17       	cp	r20, r24
    3a42:	59 07       	cpc	r21, r25
    3a44:	91 f5       	brne	.+100    	; 0x3aaa <solve_enhanced+0x114>
	{30, 37, 12, 22, 21, 28, 38, 13, 36, 14, 29, 20,   5, 11, 4, 2, 2, 0, 9, 10, 8, 11, 8, 1, 2, 2, -1},//X
	{14, 29, 20, 30, 13, 28, 38, 21, 12, 22, 37, 36,   3, 3, 1, 4, 11, 4, 10, 5, 0, 2, 2, 8, 11, 9, -1},//20//X
	{14, 21, 28, 38, 29, 12, 22, 13, 20, 30, 37, 36,   8, 10, 9, 2, 2, 1, 4, 11, 5, 10, 5, 0, 2, 2, -1}//X
};
char solve_enhanced(uint8_t *v, int8_t *s){
	unsigned int max = MAX_JOGADAS;
    3a46:	68 01       	movw	r12, r16
    3a48:	ab 2c       	mov	r10, r11
    3a4a:	a0 1a       	sub	r10, r16
    3a4c:	21 c0       	rjmp	.+66     	; 0x3a90 <solve_enhanced+0xfa>
	a = 0;
	while(a<56){
		int8_t cruz[8];
		memcpy_P(cruz, _CRUZ[a], 8); 
		if( (!cruz[1] && k[cruz[0]]==0 && k[cruz[2]]==cruz[3])||
		( cruz[1] && k[cruz[0]]==0 && k[cruz[2]]!=cruz[3]) ){
    3a4e:	81 11       	cpse	r24, r1
    3a50:	2c c0       	rjmp	.+88     	; 0x3aaa <solve_enhanced+0x114>
    3a52:	8b a9       	ldd	r24, Y+51	; 0x33
    3a54:	e1 e0       	ldi	r30, 0x01	; 1
    3a56:	f0 e0       	ldi	r31, 0x00	; 0
    3a58:	ec 0f       	add	r30, r28
    3a5a:	fd 1f       	adc	r31, r29
    3a5c:	e8 0f       	add	r30, r24
    3a5e:	f1 1d       	adc	r31, r1
    3a60:	87 fd       	sbrc	r24, 7
    3a62:	fa 95       	dec	r31
    3a64:	40 81       	ld	r20, Z
    3a66:	50 e0       	ldi	r21, 0x00	; 0
    3a68:	8c a9       	ldd	r24, Y+52	; 0x34
    3a6a:	08 2e       	mov	r0, r24
    3a6c:	00 0c       	add	r0, r0
    3a6e:	99 0b       	sbc	r25, r25
    3a70:	48 17       	cp	r20, r24
    3a72:	59 07       	cpc	r21, r25
    3a74:	41 f7       	brne	.-48     	; 0x3a46 <solve_enhanced+0xb0>
    3a76:	19 c0       	rjmp	.+50     	; 0x3aaa <solve_enhanced+0x114>
			for(b=4;cruz[b]>=0;b++){
				*(s++)=cruz[b];
    3a78:	f6 01       	movw	r30, r12
    3a7a:	61 93       	st	Z+, r22
    3a7c:	6f 01       	movw	r12, r30
				max--;if(!max)return 0;
    3a7e:	f1 e0       	ldi	r31, 0x01	; 1
    3a80:	ef 1a       	sub	r14, r31
    3a82:	f1 08       	sbc	r15, r1
    3a84:	09 f4       	brne	.+2      	; 0x3a88 <solve_enhanced+0xf2>
    3a86:	cf c1       	rjmp	.+926    	; 0x3e26 <solve_enhanced+0x490>
				rot(k,cruz[b]);
    3a88:	ce 01       	movw	r24, r28
    3a8a:	01 96       	adiw	r24, 0x01	; 1
    3a8c:	0e 94 3b 17 	call	0x2e76	; 0x2e76 <rot>
    3a90:	86 01       	movw	r16, r12
    3a92:	8a 2d       	mov	r24, r10
    3a94:	8c 0d       	add	r24, r12
	while(a<56){
		int8_t cruz[8];
		memcpy_P(cruz, _CRUZ[a], 8); 
		if( (!cruz[1] && k[cruz[0]]==0 && k[cruz[2]]==cruz[3])||
		( cruz[1] && k[cruz[0]]==0 && k[cruz[2]]!=cruz[3]) ){
			for(b=4;cruz[b]>=0;b++){
    3a96:	e1 e3       	ldi	r30, 0x31	; 49
    3a98:	f0 e0       	ldi	r31, 0x00	; 0
    3a9a:	ec 0f       	add	r30, r28
    3a9c:	fd 1f       	adc	r31, r29
    3a9e:	e8 0f       	add	r30, r24
    3aa0:	f1 1d       	adc	r31, r1
    3aa2:	60 81       	ld	r22, Z
    3aa4:	67 ff       	sbrs	r22, 7
    3aa6:	e8 cf       	rjmp	.-48     	; 0x3a78 <solve_enhanced+0xe2>
				*(s++)=cruz[b];
				max--;if(!max)return 0;
				rot(k,cruz[b]);
			}
			a = -1;
    3aa8:	2f ef       	ldi	r18, 0xFF	; 255
		}
		a++;
    3aaa:	2f 5f       	subi	r18, 0xFF	; 255
#ifdef VERBOSE
	putStr(" CROSS ");
	printInt(max);
#endif
	a = 0;
	while(a<56){
    3aac:	28 33       	cpi	r18, 0x38	; 56
    3aae:	08 f4       	brcc	.+2      	; 0x3ab2 <solve_enhanced+0x11c>
    3ab0:	97 cf       	rjmp	.-210    	; 0x39e0 <solve_enhanced+0x4a>
    3ab2:	20 e0       	ldi	r18, 0x00	; 0
	printInt(max);
#endif
	a = 0;
	while(a<48){
		int8_t flc[10];
		memcpy_P(flc, _FLC[a], 10);
    3ab4:	fa e0       	ldi	r31, 0x0A	; 10
    3ab6:	bf 2e       	mov	r11, r31
    3ab8:	a6 e0       	ldi	r26, 0x06	; 6
    3aba:	aa 2e       	mov	r10, r26
    3abc:	b2 9e       	mul	r11, r18
    3abe:	b0 01       	movw	r22, r0
    3ac0:	11 24       	eor	r1, r1
    3ac2:	62 5d       	subi	r22, 0xD2	; 210
    3ac4:	73 4f       	sbci	r23, 0xF3	; 243
    3ac6:	4a e0       	ldi	r20, 0x0A	; 10
    3ac8:	50 e0       	ldi	r21, 0x00	; 0
    3aca:	ce 01       	movw	r24, r28
    3acc:	c1 96       	adiw	r24, 0x31	; 49
    3ace:	63 96       	adiw	r28, 0x13	; 19
    3ad0:	2f af       	std	Y+63, r18	; 0x3f
    3ad2:	63 97       	sbiw	r28, 0x13	; 19
    3ad4:	0e 94 6d 25 	call	0x4ada	; 0x4ada <memcpy_P>
		if( (!flc[1] && k[flc[0]]==0 && k[flc[2]]==flc[3] && k[flc[4]]==flc[5])||
    3ad8:	9a a9       	ldd	r25, Y+50	; 0x32
    3ada:	89 a9       	ldd	r24, Y+49	; 0x31
    3adc:	63 96       	adiw	r28, 0x13	; 19
    3ade:	2f ad       	ldd	r18, Y+63	; 0x3f
    3ae0:	63 97       	sbiw	r28, 0x13	; 19
    3ae2:	e1 e0       	ldi	r30, 0x01	; 1
    3ae4:	f0 e0       	ldi	r31, 0x00	; 0
    3ae6:	ec 0f       	add	r30, r28
    3ae8:	fd 1f       	adc	r31, r29
    3aea:	e8 0f       	add	r30, r24
    3aec:	f1 1d       	adc	r31, r1
    3aee:	87 fd       	sbrc	r24, 7
    3af0:	fa 95       	dec	r31
    3af2:	80 81       	ld	r24, Z
    3af4:	91 11       	cpse	r25, r1
    3af6:	2c c0       	rjmp	.+88     	; 0x3b50 <solve_enhanced+0x1ba>
    3af8:	81 11       	cpse	r24, r1
    3afa:	6a c0       	rjmp	.+212    	; 0x3bd0 <solve_enhanced+0x23a>
    3afc:	8b a9       	ldd	r24, Y+51	; 0x33
    3afe:	e1 e0       	ldi	r30, 0x01	; 1
    3b00:	f0 e0       	ldi	r31, 0x00	; 0
    3b02:	ec 0f       	add	r30, r28
    3b04:	fd 1f       	adc	r31, r29
    3b06:	e8 0f       	add	r30, r24
    3b08:	f1 1d       	adc	r31, r1
    3b0a:	87 fd       	sbrc	r24, 7
    3b0c:	fa 95       	dec	r31
    3b0e:	40 81       	ld	r20, Z
    3b10:	50 e0       	ldi	r21, 0x00	; 0
    3b12:	8c a9       	ldd	r24, Y+52	; 0x34
    3b14:	08 2e       	mov	r0, r24
    3b16:	00 0c       	add	r0, r0
    3b18:	99 0b       	sbc	r25, r25
    3b1a:	48 17       	cp	r20, r24
    3b1c:	59 07       	cpc	r21, r25
    3b1e:	09 f0       	breq	.+2      	; 0x3b22 <solve_enhanced+0x18c>
    3b20:	57 c0       	rjmp	.+174    	; 0x3bd0 <solve_enhanced+0x23a>
    3b22:	8d a9       	ldd	r24, Y+53	; 0x35
    3b24:	e1 e0       	ldi	r30, 0x01	; 1
    3b26:	f0 e0       	ldi	r31, 0x00	; 0
    3b28:	ec 0f       	add	r30, r28
    3b2a:	fd 1f       	adc	r31, r29
    3b2c:	e8 0f       	add	r30, r24
    3b2e:	f1 1d       	adc	r31, r1
    3b30:	87 fd       	sbrc	r24, 7
    3b32:	fa 95       	dec	r31
    3b34:	40 81       	ld	r20, Z
    3b36:	50 e0       	ldi	r21, 0x00	; 0
    3b38:	8e a9       	ldd	r24, Y+54	; 0x36
    3b3a:	08 2e       	mov	r0, r24
    3b3c:	00 0c       	add	r0, r0
    3b3e:	99 0b       	sbc	r25, r25
    3b40:	48 17       	cp	r20, r24
    3b42:	59 07       	cpc	r21, r25
    3b44:	09 f0       	breq	.+2      	; 0x3b48 <solve_enhanced+0x1b2>
    3b46:	44 c0       	rjmp	.+136    	; 0x3bd0 <solve_enhanced+0x23a>
#ifdef VERBOSE
	putStr(" CROSS ");
	printInt(max);
#endif
	a = 0;
	while(a<56){
    3b48:	68 01       	movw	r12, r16
    3b4a:	9a 2c       	mov	r9, r10
    3b4c:	90 1a       	sub	r9, r16
    3b4e:	33 c0       	rjmp	.+102    	; 0x3bb6 <solve_enhanced+0x220>
	a = 0;
	while(a<48){
		int8_t flc[10];
		memcpy_P(flc, _FLC[a], 10);
		if( (!flc[1] && k[flc[0]]==0 && k[flc[2]]==flc[3] && k[flc[4]]==flc[5])||
		( flc[1] && k[flc[0]]==0 && k[flc[2]]!=flc[3] && k[flc[4]]!=flc[5]) ){
    3b50:	81 11       	cpse	r24, r1
    3b52:	3e c0       	rjmp	.+124    	; 0x3bd0 <solve_enhanced+0x23a>
    3b54:	8b a9       	ldd	r24, Y+51	; 0x33
    3b56:	e1 e0       	ldi	r30, 0x01	; 1
    3b58:	f0 e0       	ldi	r31, 0x00	; 0
    3b5a:	ec 0f       	add	r30, r28
    3b5c:	fd 1f       	adc	r31, r29
    3b5e:	e8 0f       	add	r30, r24
    3b60:	f1 1d       	adc	r31, r1
    3b62:	87 fd       	sbrc	r24, 7
    3b64:	fa 95       	dec	r31
    3b66:	40 81       	ld	r20, Z
    3b68:	50 e0       	ldi	r21, 0x00	; 0
    3b6a:	8c a9       	ldd	r24, Y+52	; 0x34
    3b6c:	08 2e       	mov	r0, r24
    3b6e:	00 0c       	add	r0, r0
    3b70:	99 0b       	sbc	r25, r25
    3b72:	48 17       	cp	r20, r24
    3b74:	59 07       	cpc	r21, r25
    3b76:	61 f1       	breq	.+88     	; 0x3bd0 <solve_enhanced+0x23a>
    3b78:	8d a9       	ldd	r24, Y+53	; 0x35
    3b7a:	e1 e0       	ldi	r30, 0x01	; 1
    3b7c:	f0 e0       	ldi	r31, 0x00	; 0
    3b7e:	ec 0f       	add	r30, r28
    3b80:	fd 1f       	adc	r31, r29
    3b82:	e8 0f       	add	r30, r24
    3b84:	f1 1d       	adc	r31, r1
    3b86:	87 fd       	sbrc	r24, 7
    3b88:	fa 95       	dec	r31
    3b8a:	40 81       	ld	r20, Z
    3b8c:	50 e0       	ldi	r21, 0x00	; 0
    3b8e:	8e a9       	ldd	r24, Y+54	; 0x36
    3b90:	08 2e       	mov	r0, r24
    3b92:	00 0c       	add	r0, r0
    3b94:	99 0b       	sbc	r25, r25
    3b96:	48 17       	cp	r20, r24
    3b98:	59 07       	cpc	r21, r25
    3b9a:	b1 f6       	brne	.-84     	; 0x3b48 <solve_enhanced+0x1b2>
    3b9c:	19 c0       	rjmp	.+50     	; 0x3bd0 <solve_enhanced+0x23a>
			for(b=6;flc[b]>=0;b++){
				*(s++)=flc[b];
    3b9e:	f6 01       	movw	r30, r12
    3ba0:	61 93       	st	Z+, r22
    3ba2:	6f 01       	movw	r12, r30
				max--;if(!max)return 0;
    3ba4:	f1 e0       	ldi	r31, 0x01	; 1
    3ba6:	ef 1a       	sub	r14, r31
    3ba8:	f1 08       	sbc	r15, r1
    3baa:	09 f4       	brne	.+2      	; 0x3bae <solve_enhanced+0x218>
    3bac:	3c c1       	rjmp	.+632    	; 0x3e26 <solve_enhanced+0x490>
				rot(k,flc[b]);
    3bae:	ce 01       	movw	r24, r28
    3bb0:	01 96       	adiw	r24, 0x01	; 1
    3bb2:	0e 94 3b 17 	call	0x2e76	; 0x2e76 <rot>
    3bb6:	86 01       	movw	r16, r12
    3bb8:	89 2d       	mov	r24, r9
    3bba:	8c 0d       	add	r24, r12
	while(a<48){
		int8_t flc[10];
		memcpy_P(flc, _FLC[a], 10);
		if( (!flc[1] && k[flc[0]]==0 && k[flc[2]]==flc[3] && k[flc[4]]==flc[5])||
		( flc[1] && k[flc[0]]==0 && k[flc[2]]!=flc[3] && k[flc[4]]!=flc[5]) ){
			for(b=6;flc[b]>=0;b++){
    3bbc:	e1 e3       	ldi	r30, 0x31	; 49
    3bbe:	f0 e0       	ldi	r31, 0x00	; 0
    3bc0:	ec 0f       	add	r30, r28
    3bc2:	fd 1f       	adc	r31, r29
    3bc4:	e8 0f       	add	r30, r24
    3bc6:	f1 1d       	adc	r31, r1
    3bc8:	60 81       	ld	r22, Z
    3bca:	67 ff       	sbrs	r22, 7
    3bcc:	e8 cf       	rjmp	.-48     	; 0x3b9e <solve_enhanced+0x208>
				*(s++)=flc[b];
				max--;if(!max)return 0;
				rot(k,flc[b]);
			}
			a = -1;
    3bce:	2f ef       	ldi	r18, 0xFF	; 255
		}
		a++;
    3bd0:	2f 5f       	subi	r18, 0xFF	; 255
#ifdef VERBOSE
	putStr(" FL ");
	printInt(max);
#endif
	a = 0;
	while(a<48){
    3bd2:	20 33       	cpi	r18, 0x30	; 48
    3bd4:	08 f4       	brcc	.+2      	; 0x3bd8 <solve_enhanced+0x242>
    3bd6:	72 cf       	rjmp	.-284    	; 0x3abc <solve_enhanced+0x126>
    3bd8:	20 e0       	ldi	r18, 0x00	; 0
	printInt(max);
#endif
	a = 0;
	while(a<36){
		int8_t sls[13];
		memcpy_P(sls, _SLS[a], 13);
    3bda:	7d e0       	ldi	r23, 0x0D	; 13
    3bdc:	b7 2e       	mov	r11, r23
    3bde:	e5 e0       	ldi	r30, 0x05	; 5
    3be0:	ae 2e       	mov	r10, r30
    3be2:	b2 9e       	mul	r11, r18
    3be4:	b0 01       	movw	r22, r0
    3be6:	11 24       	eor	r1, r1
    3be8:	66 5a       	subi	r22, 0xA6	; 166
    3bea:	75 4f       	sbci	r23, 0xF5	; 245
    3bec:	4d e0       	ldi	r20, 0x0D	; 13
    3bee:	50 e0       	ldi	r21, 0x00	; 0
    3bf0:	ce 01       	movw	r24, r28
    3bf2:	c1 96       	adiw	r24, 0x31	; 49
    3bf4:	63 96       	adiw	r28, 0x13	; 19
    3bf6:	2f af       	std	Y+63, r18	; 0x3f
    3bf8:	63 97       	sbiw	r28, 0x13	; 19
    3bfa:	0e 94 6d 25 	call	0x4ada	; 0x4ada <memcpy_P>
		if( (!sls[0] &&  k[sls[1]]==sls[2] && k[sls[3]]==sls[4])||
    3bfe:	39 a9       	ldd	r19, Y+49	; 0x31
    3c00:	9a a9       	ldd	r25, Y+50	; 0x32
    3c02:	8b a9       	ldd	r24, Y+51	; 0x33
    3c04:	63 96       	adiw	r28, 0x13	; 19
    3c06:	2f ad       	ldd	r18, Y+63	; 0x3f
    3c08:	63 97       	sbiw	r28, 0x13	; 19
    3c0a:	e1 e0       	ldi	r30, 0x01	; 1
    3c0c:	f0 e0       	ldi	r31, 0x00	; 0
    3c0e:	ec 0f       	add	r30, r28
    3c10:	fd 1f       	adc	r31, r29
    3c12:	e9 0f       	add	r30, r25
    3c14:	f1 1d       	adc	r31, r1
    3c16:	97 fd       	sbrc	r25, 7
    3c18:	fa 95       	dec	r31
    3c1a:	40 81       	ld	r20, Z
    3c1c:	50 e0       	ldi	r21, 0x00	; 0
    3c1e:	08 2e       	mov	r0, r24
    3c20:	00 0c       	add	r0, r0
    3c22:	99 0b       	sbc	r25, r25
    3c24:	31 11       	cpse	r19, r1
    3c26:	17 c0       	rjmp	.+46     	; 0x3c56 <solve_enhanced+0x2c0>
    3c28:	48 17       	cp	r20, r24
    3c2a:	59 07       	cpc	r21, r25
    3c2c:	09 f0       	breq	.+2      	; 0x3c30 <solve_enhanced+0x29a>
    3c2e:	46 c0       	rjmp	.+140    	; 0x3cbc <solve_enhanced+0x326>
    3c30:	8c a9       	ldd	r24, Y+52	; 0x34
    3c32:	e1 e0       	ldi	r30, 0x01	; 1
    3c34:	f0 e0       	ldi	r31, 0x00	; 0
    3c36:	ec 0f       	add	r30, r28
    3c38:	fd 1f       	adc	r31, r29
    3c3a:	e8 0f       	add	r30, r24
    3c3c:	f1 1d       	adc	r31, r1
    3c3e:	87 fd       	sbrc	r24, 7
    3c40:	fa 95       	dec	r31
    3c42:	40 81       	ld	r20, Z
    3c44:	50 e0       	ldi	r21, 0x00	; 0
    3c46:	8d a9       	ldd	r24, Y+53	; 0x35
    3c48:	08 2e       	mov	r0, r24
    3c4a:	00 0c       	add	r0, r0
    3c4c:	99 0b       	sbc	r25, r25
    3c4e:	48 17       	cp	r20, r24
    3c50:	59 07       	cpc	r21, r25
    3c52:	a1 f5       	brne	.+104    	; 0x3cbc <solve_enhanced+0x326>
    3c54:	03 c0       	rjmp	.+6      	; 0x3c5c <solve_enhanced+0x2c6>
		( sls[0] && (k[sls[1]]!=sls[2] || k[sls[3]]!=sls[4])) ){
    3c56:	48 17       	cp	r20, r24
    3c58:	59 07       	cpc	r21, r25
    3c5a:	21 f0       	breq	.+8      	; 0x3c64 <solve_enhanced+0x2ce>
#ifdef VERBOSE
	putStr(" FL ");
	printInt(max);
#endif
	a = 0;
	while(a<48){
    3c5c:	68 01       	movw	r12, r16
    3c5e:	9a 2c       	mov	r9, r10
    3c60:	90 1a       	sub	r9, r16
    3c62:	1f c0       	rjmp	.+62     	; 0x3ca2 <solve_enhanced+0x30c>
	a = 0;
	while(a<36){
		int8_t sls[13];
		memcpy_P(sls, _SLS[a], 13);
		if( (!sls[0] &&  k[sls[1]]==sls[2] && k[sls[3]]==sls[4])||
		( sls[0] && (k[sls[1]]!=sls[2] || k[sls[3]]!=sls[4])) ){
    3c64:	8c a9       	ldd	r24, Y+52	; 0x34
    3c66:	e1 e0       	ldi	r30, 0x01	; 1
    3c68:	f0 e0       	ldi	r31, 0x00	; 0
    3c6a:	ec 0f       	add	r30, r28
    3c6c:	fd 1f       	adc	r31, r29
    3c6e:	e8 0f       	add	r30, r24
    3c70:	f1 1d       	adc	r31, r1
    3c72:	87 fd       	sbrc	r24, 7
    3c74:	fa 95       	dec	r31
    3c76:	40 81       	ld	r20, Z
    3c78:	50 e0       	ldi	r21, 0x00	; 0
    3c7a:	8d a9       	ldd	r24, Y+53	; 0x35
    3c7c:	08 2e       	mov	r0, r24
    3c7e:	00 0c       	add	r0, r0
    3c80:	99 0b       	sbc	r25, r25
    3c82:	48 17       	cp	r20, r24
    3c84:	59 07       	cpc	r21, r25
    3c86:	51 f7       	brne	.-44     	; 0x3c5c <solve_enhanced+0x2c6>
    3c88:	19 c0       	rjmp	.+50     	; 0x3cbc <solve_enhanced+0x326>
			for(b=5;sls[b]>=0;b++){
				*(s++)=sls[b];
    3c8a:	f6 01       	movw	r30, r12
    3c8c:	61 93       	st	Z+, r22
    3c8e:	6f 01       	movw	r12, r30
				max--;if(!max)return 0;
    3c90:	f1 e0       	ldi	r31, 0x01	; 1
    3c92:	ef 1a       	sub	r14, r31
    3c94:	f1 08       	sbc	r15, r1
    3c96:	09 f4       	brne	.+2      	; 0x3c9a <solve_enhanced+0x304>
    3c98:	c6 c0       	rjmp	.+396    	; 0x3e26 <solve_enhanced+0x490>
				rot(k,sls[b]);
    3c9a:	ce 01       	movw	r24, r28
    3c9c:	01 96       	adiw	r24, 0x01	; 1
    3c9e:	0e 94 3b 17 	call	0x2e76	; 0x2e76 <rot>
    3ca2:	86 01       	movw	r16, r12
    3ca4:	89 2d       	mov	r24, r9
    3ca6:	8c 0d       	add	r24, r12
	while(a<36){
		int8_t sls[13];
		memcpy_P(sls, _SLS[a], 13);
		if( (!sls[0] &&  k[sls[1]]==sls[2] && k[sls[3]]==sls[4])||
		( sls[0] && (k[sls[1]]!=sls[2] || k[sls[3]]!=sls[4])) ){
			for(b=5;sls[b]>=0;b++){
    3ca8:	e1 e3       	ldi	r30, 0x31	; 49
    3caa:	f0 e0       	ldi	r31, 0x00	; 0
    3cac:	ec 0f       	add	r30, r28
    3cae:	fd 1f       	adc	r31, r29
    3cb0:	e8 0f       	add	r30, r24
    3cb2:	f1 1d       	adc	r31, r1
    3cb4:	60 81       	ld	r22, Z
    3cb6:	67 ff       	sbrs	r22, 7
    3cb8:	e8 cf       	rjmp	.-48     	; 0x3c8a <solve_enhanced+0x2f4>
				*(s++)=sls[b];
				max--;if(!max)return 0;
				rot(k,sls[b]);
			}
			a = -1;
    3cba:	2f ef       	ldi	r18, 0xFF	; 255
		}
		a++;
    3cbc:	2f 5f       	subi	r18, 0xFF	; 255
#ifdef VERBOSE
	putStr(" SL ");
	printInt(max);
#endif
	a = 0;
	while(a<36){
    3cbe:	24 32       	cpi	r18, 0x24	; 36
    3cc0:	08 f4       	brcc	.+2      	; 0x3cc4 <solve_enhanced+0x32e>
    3cc2:	8f cf       	rjmp	.-226    	; 0x3be2 <solve_enhanced+0x24c>
    3cc4:	58 e0       	ldi	r21, 0x08	; 8
    3cc6:	95 2e       	mov	r9, r21
				}
				b = 0;
			}
		}
		if(b>0){
			*(s++) = 10;
    3cc8:	6a e0       	ldi	r22, 0x0A	; 10
    3cca:	86 2e       	mov	r8, r22
    3ccc:	2e e8       	ldi	r18, 0x8E	; 142
    3cce:	a2 2e       	mov	r10, r18
    3cd0:	23 e0       	ldi	r18, 0x03	; 3
    3cd2:	b2 2e       	mov	r11, r18
#endif
	b = 1;
	while(b){
		for(a=0;a<58 && b;a++){
			int8_t oll[30];
			memcpy_P(oll, _OLL[a], 30);
    3cd4:	4e e1       	ldi	r20, 0x1E	; 30
    3cd6:	50 e0       	ldi	r21, 0x00	; 0
    3cd8:	b5 01       	movw	r22, r10
    3cda:	ce 01       	movw	r24, r28
    3cdc:	c1 96       	adiw	r24, 0x31	; 49
    3cde:	0e 94 6d 25 	call	0x4ada	; 0x4ada <memcpy_P>
			if(k[oll[0]]==5 && k[oll[1]]==5 && k[oll[2]]==5 && k[oll[3]]==5 &&
    3ce2:	89 a9       	ldd	r24, Y+49	; 0x31
    3ce4:	e1 e0       	ldi	r30, 0x01	; 1
    3ce6:	f0 e0       	ldi	r31, 0x00	; 0
    3ce8:	ec 0f       	add	r30, r28
    3cea:	fd 1f       	adc	r31, r29
    3cec:	e8 0f       	add	r30, r24
    3cee:	f1 1d       	adc	r31, r1
    3cf0:	87 fd       	sbrc	r24, 7
    3cf2:	fa 95       	dec	r31
    3cf4:	80 81       	ld	r24, Z
    3cf6:	85 30       	cpi	r24, 0x05	; 5
    3cf8:	09 f0       	breq	.+2      	; 0x3cfc <solve_enhanced+0x366>
    3cfa:	75 c0       	rjmp	.+234    	; 0x3de6 <solve_enhanced+0x450>
    3cfc:	8a a9       	ldd	r24, Y+50	; 0x32
    3cfe:	e1 e0       	ldi	r30, 0x01	; 1
    3d00:	f0 e0       	ldi	r31, 0x00	; 0
    3d02:	ec 0f       	add	r30, r28
    3d04:	fd 1f       	adc	r31, r29
    3d06:	e8 0f       	add	r30, r24
    3d08:	f1 1d       	adc	r31, r1
    3d0a:	87 fd       	sbrc	r24, 7
    3d0c:	fa 95       	dec	r31
    3d0e:	80 81       	ld	r24, Z
    3d10:	85 30       	cpi	r24, 0x05	; 5
    3d12:	09 f0       	breq	.+2      	; 0x3d16 <solve_enhanced+0x380>
    3d14:	68 c0       	rjmp	.+208    	; 0x3de6 <solve_enhanced+0x450>
    3d16:	8b a9       	ldd	r24, Y+51	; 0x33
    3d18:	e1 e0       	ldi	r30, 0x01	; 1
    3d1a:	f0 e0       	ldi	r31, 0x00	; 0
    3d1c:	ec 0f       	add	r30, r28
    3d1e:	fd 1f       	adc	r31, r29
    3d20:	e8 0f       	add	r30, r24
    3d22:	f1 1d       	adc	r31, r1
    3d24:	87 fd       	sbrc	r24, 7
    3d26:	fa 95       	dec	r31
    3d28:	80 81       	ld	r24, Z
    3d2a:	85 30       	cpi	r24, 0x05	; 5
    3d2c:	09 f0       	breq	.+2      	; 0x3d30 <solve_enhanced+0x39a>
    3d2e:	5b c0       	rjmp	.+182    	; 0x3de6 <solve_enhanced+0x450>
    3d30:	8c a9       	ldd	r24, Y+52	; 0x34
    3d32:	e1 e0       	ldi	r30, 0x01	; 1
    3d34:	f0 e0       	ldi	r31, 0x00	; 0
    3d36:	ec 0f       	add	r30, r28
    3d38:	fd 1f       	adc	r31, r29
    3d3a:	e8 0f       	add	r30, r24
    3d3c:	f1 1d       	adc	r31, r1
    3d3e:	87 fd       	sbrc	r24, 7
    3d40:	fa 95       	dec	r31
    3d42:	80 81       	ld	r24, Z
    3d44:	85 30       	cpi	r24, 0x05	; 5
    3d46:	09 f0       	breq	.+2      	; 0x3d4a <solve_enhanced+0x3b4>
    3d48:	4e c0       	rjmp	.+156    	; 0x3de6 <solve_enhanced+0x450>
			k[oll[4]]==5 && k[oll[5]]==5 && k[oll[6]]==5 && k[oll[7]]==5){
    3d4a:	8d a9       	ldd	r24, Y+53	; 0x35
    3d4c:	e1 e0       	ldi	r30, 0x01	; 1
    3d4e:	f0 e0       	ldi	r31, 0x00	; 0
    3d50:	ec 0f       	add	r30, r28
    3d52:	fd 1f       	adc	r31, r29
    3d54:	e8 0f       	add	r30, r24
    3d56:	f1 1d       	adc	r31, r1
    3d58:	87 fd       	sbrc	r24, 7
    3d5a:	fa 95       	dec	r31
	b = 1;
	while(b){
		for(a=0;a<58 && b;a++){
			int8_t oll[30];
			memcpy_P(oll, _OLL[a], 30);
			if(k[oll[0]]==5 && k[oll[1]]==5 && k[oll[2]]==5 && k[oll[3]]==5 &&
    3d5c:	80 81       	ld	r24, Z
    3d5e:	85 30       	cpi	r24, 0x05	; 5
    3d60:	09 f0       	breq	.+2      	; 0x3d64 <solve_enhanced+0x3ce>
    3d62:	41 c0       	rjmp	.+130    	; 0x3de6 <solve_enhanced+0x450>
			k[oll[4]]==5 && k[oll[5]]==5 && k[oll[6]]==5 && k[oll[7]]==5){
    3d64:	8e a9       	ldd	r24, Y+54	; 0x36
    3d66:	e1 e0       	ldi	r30, 0x01	; 1
    3d68:	f0 e0       	ldi	r31, 0x00	; 0
    3d6a:	ec 0f       	add	r30, r28
    3d6c:	fd 1f       	adc	r31, r29
    3d6e:	e8 0f       	add	r30, r24
    3d70:	f1 1d       	adc	r31, r1
    3d72:	87 fd       	sbrc	r24, 7
    3d74:	fa 95       	dec	r31
    3d76:	80 81       	ld	r24, Z
    3d78:	85 30       	cpi	r24, 0x05	; 5
    3d7a:	a9 f5       	brne	.+106    	; 0x3de6 <solve_enhanced+0x450>
    3d7c:	8f a9       	ldd	r24, Y+55	; 0x37
    3d7e:	e1 e0       	ldi	r30, 0x01	; 1
    3d80:	f0 e0       	ldi	r31, 0x00	; 0
    3d82:	ec 0f       	add	r30, r28
    3d84:	fd 1f       	adc	r31, r29
    3d86:	e8 0f       	add	r30, r24
    3d88:	f1 1d       	adc	r31, r1
    3d8a:	87 fd       	sbrc	r24, 7
    3d8c:	fa 95       	dec	r31
    3d8e:	80 81       	ld	r24, Z
    3d90:	85 30       	cpi	r24, 0x05	; 5
    3d92:	49 f5       	brne	.+82     	; 0x3de6 <solve_enhanced+0x450>
    3d94:	88 ad       	ldd	r24, Y+56	; 0x38
    3d96:	e1 e0       	ldi	r30, 0x01	; 1
    3d98:	f0 e0       	ldi	r31, 0x00	; 0
    3d9a:	ec 0f       	add	r30, r28
    3d9c:	fd 1f       	adc	r31, r29
    3d9e:	e8 0f       	add	r30, r24
    3da0:	f1 1d       	adc	r31, r1
    3da2:	87 fd       	sbrc	r24, 7
    3da4:	fa 95       	dec	r31
    3da6:	80 81       	ld	r24, Z
    3da8:	85 30       	cpi	r24, 0x05	; 5
    3daa:	e9 f4       	brne	.+58     	; 0x3de6 <solve_enhanced+0x450>
    3dac:	68 01       	movw	r12, r16
    3dae:	79 2c       	mov	r7, r9
    3db0:	70 1a       	sub	r7, r16
    3db2:	86 01       	movw	r16, r12
    3db4:	87 2d       	mov	r24, r7
    3db6:	8c 0d       	add	r24, r12
				cw = 8;
				while(oll[cw]>0){
    3db8:	e1 e3       	ldi	r30, 0x31	; 49
    3dba:	f0 e0       	ldi	r31, 0x00	; 0
    3dbc:	ec 0f       	add	r30, r28
    3dbe:	fd 1f       	adc	r31, r29
    3dc0:	e8 0f       	add	r30, r24
    3dc2:	f1 1d       	adc	r31, r1
    3dc4:	60 81       	ld	r22, Z
    3dc6:	16 16       	cp	r1, r22
    3dc8:	64 f4       	brge	.+24     	; 0x3de2 <solve_enhanced+0x44c>
					*(s++) = oll[cw];
    3dca:	f6 01       	movw	r30, r12
    3dcc:	61 93       	st	Z+, r22
    3dce:	6f 01       	movw	r12, r30
					max--;if(!max)return 0;
    3dd0:	f1 e0       	ldi	r31, 0x01	; 1
    3dd2:	ef 1a       	sub	r14, r31
    3dd4:	f1 08       	sbc	r15, r1
    3dd6:	39 f1       	breq	.+78     	; 0x3e26 <solve_enhanced+0x490>
					rot(k, oll[cw]);
    3dd8:	ce 01       	movw	r24, r28
    3dda:	01 96       	adiw	r24, 0x01	; 1
    3ddc:	0e 94 3b 17 	call	0x2e76	; 0x2e76 <rot>
    3de0:	e8 cf       	rjmp	.-48     	; 0x3db2 <solve_enhanced+0x41c>
					cw++;
				}
				b = 0;
    3de2:	80 e0       	ldi	r24, 0x00	; 0
    3de4:	01 c0       	rjmp	.+2      	; 0x3de8 <solve_enhanced+0x452>
    3de6:	81 e0       	ldi	r24, 0x01	; 1
	putStr(" OLL ");
	printInt(max);
#endif
	b = 1;
	while(b){
		for(a=0;a<58 && b;a++){
    3de8:	9c e3       	ldi	r25, 0x3C	; 60
    3dea:	a9 16       	cp	r10, r25
    3dec:	9a e0       	ldi	r25, 0x0A	; 10
    3dee:	b9 06       	cpc	r11, r25
    3df0:	51 f0       	breq	.+20     	; 0x3e06 <solve_enhanced+0x470>
    3df2:	ee e1       	ldi	r30, 0x1E	; 30
    3df4:	ae 0e       	add	r10, r30
    3df6:	b1 1c       	adc	r11, r1
    3df8:	81 11       	cpse	r24, r1
    3dfa:	6c cf       	rjmp	.-296    	; 0x3cd4 <solve_enhanced+0x33e>
    3dfc:	3c e0       	ldi	r19, 0x0C	; 12
    3dfe:	93 2e       	mov	r9, r19
				}
				b = 0;
			}
		}
		if(b>0){
			*(s++) = 10;
    3e00:	4a e0       	ldi	r20, 0x0A	; 10
    3e02:	84 2e       	mov	r8, r20
    3e04:	cd c0       	rjmp	.+410    	; 0x3fa0 <solve_enhanced+0x60a>
    3e06:	f8 01       	movw	r30, r16
					cw++;
				}
				b = 0;
			}
		}
		if(b>0){
    3e08:	88 23       	and	r24, r24
    3e0a:	c1 f3       	breq	.-16     	; 0x3dfc <solve_enhanced+0x466>
			*(s++) = 10;
    3e0c:	0f 5f       	subi	r16, 0xFF	; 255
    3e0e:	1f 4f       	sbci	r17, 0xFF	; 255
    3e10:	80 82       	st	Z, r8
			max--;if(!max)return 0;
    3e12:	f1 e0       	ldi	r31, 0x01	; 1
    3e14:	ef 1a       	sub	r14, r31
    3e16:	f1 08       	sbc	r15, r1
    3e18:	31 f0       	breq	.+12     	; 0x3e26 <solve_enhanced+0x490>
			rot(k, 10);
    3e1a:	6a e0       	ldi	r22, 0x0A	; 10
    3e1c:	ce 01       	movw	r24, r28
    3e1e:	01 96       	adiw	r24, 0x01	; 1
    3e20:	0e 94 3b 17 	call	0x2e76	; 0x2e76 <rot>
    3e24:	53 cf       	rjmp	.-346    	; 0x3ccc <solve_enhanced+0x336>
			k[pll[ 6]]==k[pll[ 7]] && k[pll[ 6]]==k[pll[ 8]] &&
			k[pll[ 9]]==k[pll[10]] && k[pll[ 9]]==k[pll[11]] ){
				cw = 12;
				while(pll[cw]>=0){
					*(s++) = pll[cw];
					max--;if(!max)return 0;
    3e26:	80 e0       	ldi	r24, 0x00	; 0
    3e28:	e6 c0       	rjmp	.+460    	; 0x3ff6 <solve_enhanced+0x660>
    3e2a:	e1 e2       	ldi	r30, 0x21	; 33
    3e2c:	ae 0e       	add	r10, r30
    3e2e:	b1 1c       	adc	r11, r1
	putStr(" PLL ");
	printInt(max);
#endif
	b = 1;
	while(b){
		for(a=0;a<22 && b;a++){
    3e30:	88 23       	and	r24, r24
    3e32:	09 f4       	brne	.+2      	; 0x3e36 <solve_enhanced+0x4a0>
    3e34:	c9 c0       	rjmp	.+402    	; 0x3fc8 <solve_enhanced+0x632>
			int8_t pll[33];
			memcpy_P(pll, _PLL[a], 33);
    3e36:	41 e2       	ldi	r20, 0x21	; 33
    3e38:	50 e0       	ldi	r21, 0x00	; 0
    3e3a:	b5 01       	movw	r22, r10
    3e3c:	ce 01       	movw	r24, r28
    3e3e:	c1 96       	adiw	r24, 0x31	; 49
    3e40:	0e 94 6d 25 	call	0x4ada	; 0x4ada <memcpy_P>
			if(k[pll[ 0]]==k[pll[ 1]] && k[pll[ 0]]==k[pll[ 2]] &&
    3e44:	89 a9       	ldd	r24, Y+49	; 0x31
    3e46:	e1 e0       	ldi	r30, 0x01	; 1
    3e48:	f0 e0       	ldi	r31, 0x00	; 0
    3e4a:	ec 0f       	add	r30, r28
    3e4c:	fd 1f       	adc	r31, r29
    3e4e:	e8 0f       	add	r30, r24
    3e50:	f1 1d       	adc	r31, r1
    3e52:	87 fd       	sbrc	r24, 7
    3e54:	fa 95       	dec	r31
    3e56:	80 81       	ld	r24, Z
    3e58:	9a a9       	ldd	r25, Y+50	; 0x32
    3e5a:	e1 e0       	ldi	r30, 0x01	; 1
    3e5c:	f0 e0       	ldi	r31, 0x00	; 0
    3e5e:	ec 0f       	add	r30, r28
    3e60:	fd 1f       	adc	r31, r29
    3e62:	e9 0f       	add	r30, r25
    3e64:	f1 1d       	adc	r31, r1
    3e66:	97 fd       	sbrc	r25, 7
    3e68:	fa 95       	dec	r31
    3e6a:	90 81       	ld	r25, Z
    3e6c:	89 13       	cpse	r24, r25
    3e6e:	aa c0       	rjmp	.+340    	; 0x3fc4 <solve_enhanced+0x62e>
    3e70:	9b a9       	ldd	r25, Y+51	; 0x33
    3e72:	e1 e0       	ldi	r30, 0x01	; 1
    3e74:	f0 e0       	ldi	r31, 0x00	; 0
    3e76:	ec 0f       	add	r30, r28
    3e78:	fd 1f       	adc	r31, r29
    3e7a:	e9 0f       	add	r30, r25
    3e7c:	f1 1d       	adc	r31, r1
    3e7e:	97 fd       	sbrc	r25, 7
    3e80:	fa 95       	dec	r31
    3e82:	90 81       	ld	r25, Z
    3e84:	89 13       	cpse	r24, r25
    3e86:	9e c0       	rjmp	.+316    	; 0x3fc4 <solve_enhanced+0x62e>
			k[pll[ 3]]==k[pll[ 4]] && k[pll[ 3]]==k[pll[ 5]] &&
    3e88:	8c a9       	ldd	r24, Y+52	; 0x34
    3e8a:	e1 e0       	ldi	r30, 0x01	; 1
    3e8c:	f0 e0       	ldi	r31, 0x00	; 0
    3e8e:	ec 0f       	add	r30, r28
    3e90:	fd 1f       	adc	r31, r29
    3e92:	e8 0f       	add	r30, r24
    3e94:	f1 1d       	adc	r31, r1
    3e96:	87 fd       	sbrc	r24, 7
    3e98:	fa 95       	dec	r31
    3e9a:	80 81       	ld	r24, Z
    3e9c:	9d a9       	ldd	r25, Y+53	; 0x35
    3e9e:	e1 e0       	ldi	r30, 0x01	; 1
    3ea0:	f0 e0       	ldi	r31, 0x00	; 0
    3ea2:	ec 0f       	add	r30, r28
    3ea4:	fd 1f       	adc	r31, r29
    3ea6:	e9 0f       	add	r30, r25
    3ea8:	f1 1d       	adc	r31, r1
    3eaa:	97 fd       	sbrc	r25, 7
    3eac:	fa 95       	dec	r31
	b = 1;
	while(b){
		for(a=0;a<22 && b;a++){
			int8_t pll[33];
			memcpy_P(pll, _PLL[a], 33);
			if(k[pll[ 0]]==k[pll[ 1]] && k[pll[ 0]]==k[pll[ 2]] &&
    3eae:	90 81       	ld	r25, Z
    3eb0:	89 13       	cpse	r24, r25
    3eb2:	88 c0       	rjmp	.+272    	; 0x3fc4 <solve_enhanced+0x62e>
			k[pll[ 3]]==k[pll[ 4]] && k[pll[ 3]]==k[pll[ 5]] &&
    3eb4:	9e a9       	ldd	r25, Y+54	; 0x36
    3eb6:	e1 e0       	ldi	r30, 0x01	; 1
    3eb8:	f0 e0       	ldi	r31, 0x00	; 0
    3eba:	ec 0f       	add	r30, r28
    3ebc:	fd 1f       	adc	r31, r29
    3ebe:	e9 0f       	add	r30, r25
    3ec0:	f1 1d       	adc	r31, r1
    3ec2:	97 fd       	sbrc	r25, 7
    3ec4:	fa 95       	dec	r31
    3ec6:	90 81       	ld	r25, Z
    3ec8:	89 13       	cpse	r24, r25
    3eca:	7c c0       	rjmp	.+248    	; 0x3fc4 <solve_enhanced+0x62e>
			k[pll[ 6]]==k[pll[ 7]] && k[pll[ 6]]==k[pll[ 8]] &&
    3ecc:	8f a9       	ldd	r24, Y+55	; 0x37
    3ece:	e1 e0       	ldi	r30, 0x01	; 1
    3ed0:	f0 e0       	ldi	r31, 0x00	; 0
    3ed2:	ec 0f       	add	r30, r28
    3ed4:	fd 1f       	adc	r31, r29
    3ed6:	e8 0f       	add	r30, r24
    3ed8:	f1 1d       	adc	r31, r1
    3eda:	87 fd       	sbrc	r24, 7
    3edc:	fa 95       	dec	r31
    3ede:	80 81       	ld	r24, Z
    3ee0:	98 ad       	ldd	r25, Y+56	; 0x38
    3ee2:	e1 e0       	ldi	r30, 0x01	; 1
    3ee4:	f0 e0       	ldi	r31, 0x00	; 0
    3ee6:	ec 0f       	add	r30, r28
    3ee8:	fd 1f       	adc	r31, r29
    3eea:	e9 0f       	add	r30, r25
    3eec:	f1 1d       	adc	r31, r1
    3eee:	97 fd       	sbrc	r25, 7
    3ef0:	fa 95       	dec	r31
	while(b){
		for(a=0;a<22 && b;a++){
			int8_t pll[33];
			memcpy_P(pll, _PLL[a], 33);
			if(k[pll[ 0]]==k[pll[ 1]] && k[pll[ 0]]==k[pll[ 2]] &&
			k[pll[ 3]]==k[pll[ 4]] && k[pll[ 3]]==k[pll[ 5]] &&
    3ef2:	90 81       	ld	r25, Z
    3ef4:	89 13       	cpse	r24, r25
    3ef6:	66 c0       	rjmp	.+204    	; 0x3fc4 <solve_enhanced+0x62e>
			k[pll[ 6]]==k[pll[ 7]] && k[pll[ 6]]==k[pll[ 8]] &&
    3ef8:	99 ad       	ldd	r25, Y+57	; 0x39
    3efa:	e1 e0       	ldi	r30, 0x01	; 1
    3efc:	f0 e0       	ldi	r31, 0x00	; 0
    3efe:	ec 0f       	add	r30, r28
    3f00:	fd 1f       	adc	r31, r29
    3f02:	e9 0f       	add	r30, r25
    3f04:	f1 1d       	adc	r31, r1
    3f06:	97 fd       	sbrc	r25, 7
    3f08:	fa 95       	dec	r31
    3f0a:	90 81       	ld	r25, Z
    3f0c:	89 13       	cpse	r24, r25
    3f0e:	5a c0       	rjmp	.+180    	; 0x3fc4 <solve_enhanced+0x62e>
			k[pll[ 9]]==k[pll[10]] && k[pll[ 9]]==k[pll[11]] ){
    3f10:	8a ad       	ldd	r24, Y+58	; 0x3a
    3f12:	e1 e0       	ldi	r30, 0x01	; 1
    3f14:	f0 e0       	ldi	r31, 0x00	; 0
    3f16:	ec 0f       	add	r30, r28
    3f18:	fd 1f       	adc	r31, r29
    3f1a:	e8 0f       	add	r30, r24
    3f1c:	f1 1d       	adc	r31, r1
    3f1e:	87 fd       	sbrc	r24, 7
    3f20:	fa 95       	dec	r31
    3f22:	80 81       	ld	r24, Z
    3f24:	9b ad       	ldd	r25, Y+59	; 0x3b
    3f26:	e1 e0       	ldi	r30, 0x01	; 1
    3f28:	f0 e0       	ldi	r31, 0x00	; 0
    3f2a:	ec 0f       	add	r30, r28
    3f2c:	fd 1f       	adc	r31, r29
    3f2e:	e9 0f       	add	r30, r25
    3f30:	f1 1d       	adc	r31, r1
    3f32:	97 fd       	sbrc	r25, 7
    3f34:	fa 95       	dec	r31
		for(a=0;a<22 && b;a++){
			int8_t pll[33];
			memcpy_P(pll, _PLL[a], 33);
			if(k[pll[ 0]]==k[pll[ 1]] && k[pll[ 0]]==k[pll[ 2]] &&
			k[pll[ 3]]==k[pll[ 4]] && k[pll[ 3]]==k[pll[ 5]] &&
			k[pll[ 6]]==k[pll[ 7]] && k[pll[ 6]]==k[pll[ 8]] &&
    3f36:	90 81       	ld	r25, Z
    3f38:	89 13       	cpse	r24, r25
    3f3a:	44 c0       	rjmp	.+136    	; 0x3fc4 <solve_enhanced+0x62e>
			k[pll[ 9]]==k[pll[10]] && k[pll[ 9]]==k[pll[11]] ){
    3f3c:	9c ad       	ldd	r25, Y+60	; 0x3c
    3f3e:	e1 e0       	ldi	r30, 0x01	; 1
    3f40:	f0 e0       	ldi	r31, 0x00	; 0
    3f42:	ec 0f       	add	r30, r28
    3f44:	fd 1f       	adc	r31, r29
    3f46:	e9 0f       	add	r30, r25
    3f48:	f1 1d       	adc	r31, r1
    3f4a:	97 fd       	sbrc	r25, 7
    3f4c:	fa 95       	dec	r31
    3f4e:	90 81       	ld	r25, Z
    3f50:	89 13       	cpse	r24, r25
    3f52:	38 c0       	rjmp	.+112    	; 0x3fc4 <solve_enhanced+0x62e>
    3f54:	68 01       	movw	r12, r16
    3f56:	79 2c       	mov	r7, r9
    3f58:	70 1a       	sub	r7, r16
    3f5a:	86 01       	movw	r16, r12
    3f5c:	87 2d       	mov	r24, r7
    3f5e:	8c 0d       	add	r24, r12
				cw = 12;
				while(pll[cw]>=0){
    3f60:	e1 e3       	ldi	r30, 0x31	; 49
    3f62:	f0 e0       	ldi	r31, 0x00	; 0
    3f64:	ec 0f       	add	r30, r28
    3f66:	fd 1f       	adc	r31, r29
    3f68:	e8 0f       	add	r30, r24
    3f6a:	f1 1d       	adc	r31, r1
    3f6c:	60 81       	ld	r22, Z
    3f6e:	67 ff       	sbrs	r22, 7
    3f70:	1c c0       	rjmp	.+56     	; 0x3faa <solve_enhanced+0x614>
					*(s++) = pll[cw];
					max--;if(!max)return 0;
					rot(k, pll[cw]);
					cw++;
				}
				b = 0;
    3f72:	80 e0       	ldi	r24, 0x00	; 0
	putStr(" PLL ");
	printInt(max);
#endif
	b = 1;
	while(b){
		for(a=0;a<22 && b;a++){
    3f74:	9d e6       	ldi	r25, 0x6D	; 109
    3f76:	a9 16       	cp	r10, r25
    3f78:	93 e0       	ldi	r25, 0x03	; 3
    3f7a:	b9 06       	cpc	r11, r25
    3f7c:	09 f0       	breq	.+2      	; 0x3f80 <solve_enhanced+0x5ea>
    3f7e:	55 cf       	rjmp	.-342    	; 0x3e2a <solve_enhanced+0x494>
    3f80:	f8 01       	movw	r30, r16
					cw++;
				}
				b = 0;
			}
		}
		if(b>0){
    3f82:	88 23       	and	r24, r24
    3f84:	09 f1       	breq	.+66     	; 0x3fc8 <solve_enhanced+0x632>
			*(s++) = 10;
    3f86:	0f 5f       	subi	r16, 0xFF	; 255
    3f88:	1f 4f       	sbci	r17, 0xFF	; 255
    3f8a:	80 82       	st	Z, r8
			max--;if(!max)return 0;
    3f8c:	f1 e0       	ldi	r31, 0x01	; 1
    3f8e:	ef 1a       	sub	r14, r31
    3f90:	f1 08       	sbc	r15, r1
    3f92:	09 f4       	brne	.+2      	; 0x3f96 <solve_enhanced+0x600>
    3f94:	48 cf       	rjmp	.-368    	; 0x3e26 <solve_enhanced+0x490>
			rot(k, 10);
    3f96:	6a e0       	ldi	r22, 0x0A	; 10
    3f98:	ce 01       	movw	r24, r28
    3f9a:	01 96       	adiw	r24, 0x01	; 1
    3f9c:	0e 94 3b 17 	call	0x2e76	; 0x2e76 <rot>
    3fa0:	98 eb       	ldi	r25, 0xB8	; 184
    3fa2:	a9 2e       	mov	r10, r25
    3fa4:	90 e0       	ldi	r25, 0x00	; 0
    3fa6:	b9 2e       	mov	r11, r25
    3fa8:	46 cf       	rjmp	.-372    	; 0x3e36 <solve_enhanced+0x4a0>
			k[pll[ 3]]==k[pll[ 4]] && k[pll[ 3]]==k[pll[ 5]] &&
			k[pll[ 6]]==k[pll[ 7]] && k[pll[ 6]]==k[pll[ 8]] &&
			k[pll[ 9]]==k[pll[10]] && k[pll[ 9]]==k[pll[11]] ){
				cw = 12;
				while(pll[cw]>=0){
					*(s++) = pll[cw];
    3faa:	f6 01       	movw	r30, r12
    3fac:	61 93       	st	Z+, r22
    3fae:	6f 01       	movw	r12, r30
					max--;if(!max)return 0;
    3fb0:	f1 e0       	ldi	r31, 0x01	; 1
    3fb2:	ef 1a       	sub	r14, r31
    3fb4:	f1 08       	sbc	r15, r1
    3fb6:	09 f4       	brne	.+2      	; 0x3fba <solve_enhanced+0x624>
    3fb8:	36 cf       	rjmp	.-404    	; 0x3e26 <solve_enhanced+0x490>
					rot(k, pll[cw]);
    3fba:	ce 01       	movw	r24, r28
    3fbc:	01 96       	adiw	r24, 0x01	; 1
    3fbe:	0e 94 3b 17 	call	0x2e76	; 0x2e76 <rot>
    3fc2:	cb cf       	rjmp	.-106    	; 0x3f5a <solve_enhanced+0x5c4>
    3fc4:	81 e0       	ldi	r24, 0x01	; 1
    3fc6:	d6 cf       	rjmp	.-84     	; 0x3f74 <solve_enhanced+0x5de>
#ifdef VERBOSE
	putStr(" ROT ");
	printInt(max);
#endif
	while(k[13]!=1){
		*(s++) = 10;
    3fc8:	8a e0       	ldi	r24, 0x0A	; 10
    3fca:	d8 2e       	mov	r13, r24
	}
#ifdef VERBOSE
	putStr(" ROT ");
	printInt(max);
#endif
	while(k[13]!=1){
    3fcc:	8e 85       	ldd	r24, Y+14	; 0x0e
    3fce:	81 30       	cpi	r24, 0x01	; 1
    3fd0:	71 f0       	breq	.+28     	; 0x3fee <solve_enhanced+0x658>
		*(s++) = 10;
    3fd2:	f8 01       	movw	r30, r16
    3fd4:	d1 92       	st	Z+, r13
    3fd6:	8f 01       	movw	r16, r30
		max--;if(!max)return 0;
    3fd8:	f1 e0       	ldi	r31, 0x01	; 1
    3fda:	ef 1a       	sub	r14, r31
    3fdc:	f1 08       	sbc	r15, r1
    3fde:	09 f4       	brne	.+2      	; 0x3fe2 <solve_enhanced+0x64c>
    3fe0:	22 cf       	rjmp	.-444    	; 0x3e26 <solve_enhanced+0x490>
		rot(k, 10);
    3fe2:	6a e0       	ldi	r22, 0x0A	; 10
    3fe4:	ce 01       	movw	r24, r28
    3fe6:	01 96       	adiw	r24, 0x01	; 1
    3fe8:	0e 94 3b 17 	call	0x2e76	; 0x2e76 <rot>
    3fec:	ef cf       	rjmp	.-34     	; 0x3fcc <solve_enhanced+0x636>
	}
#ifdef VERBOSE
	putStr(" done!\n");
#endif
	*(s++) = -1;
    3fee:	8f ef       	ldi	r24, 0xFF	; 255
    3ff0:	f8 01       	movw	r30, r16
    3ff2:	80 83       	st	Z, r24
	return 1;
    3ff4:	81 e0       	ldi	r24, 0x01	; 1
}
    3ff6:	ce 5a       	subi	r28, 0xAE	; 174
    3ff8:	df 4f       	sbci	r29, 0xFF	; 255
    3ffa:	0f b6       	in	r0, 0x3f	; 63
    3ffc:	f8 94       	cli
    3ffe:	de bf       	out	0x3e, r29	; 62
    4000:	0f be       	out	0x3f, r0	; 63
    4002:	cd bf       	out	0x3d, r28	; 61
    4004:	df 91       	pop	r29
    4006:	cf 91       	pop	r28
    4008:	1f 91       	pop	r17
    400a:	0f 91       	pop	r16
    400c:	ff 90       	pop	r15
    400e:	ef 90       	pop	r14
    4010:	df 90       	pop	r13
    4012:	cf 90       	pop	r12
    4014:	bf 90       	pop	r11
    4016:	af 90       	pop	r10
    4018:	9f 90       	pop	r9
    401a:	8f 90       	pop	r8
    401c:	7f 90       	pop	r7
    401e:	08 95       	ret

00004020 <simplify>:
	if(menor==MAX_JOGADAS)return 0;
   for(int i=0;solucoes[menorIndex][i]>=0;i++)s[i]=solucoes[menorIndex][i]>=0;
   return menorIndex+1;
}

void simplify(int8_t *l){
    4020:	4f 92       	push	r4
    4022:	5f 92       	push	r5
    4024:	7f 92       	push	r7
    4026:	8f 92       	push	r8
    4028:	9f 92       	push	r9
    402a:	af 92       	push	r10
    402c:	bf 92       	push	r11
    402e:	cf 92       	push	r12
    4030:	df 92       	push	r13
    4032:	ef 92       	push	r14
    4034:	ff 92       	push	r15
    4036:	0f 93       	push	r16
    4038:	1f 93       	push	r17
    403a:	cf 93       	push	r28
    403c:	df 93       	push	r29
    403e:	cd b7       	in	r28, 0x3d	; 61
    4040:	de b7       	in	r29, 0x3e	; 62
    4042:	c8 5f       	subi	r28, 0xF8	; 248
    4044:	d1 40       	sbci	r29, 0x01	; 1
    4046:	0f b6       	in	r0, 0x3f	; 63
    4048:	f8 94       	cli
    404a:	de bf       	out	0x3e, r29	; 62
    404c:	0f be       	out	0x3f, r0	; 63
    404e:	cd bf       	out	0x3d, r28	; 61
    4050:	8c 01       	movw	r16, r24
	putStr("simplify...");
    4052:	8a e0       	ldi	r24, 0x0A	; 10
    4054:	91 e0       	ldi	r25, 0x01	; 1
    4056:	0e 94 97 08 	call	0x112e	; 0x112e <putStr>
   const int8_t P[36][14] = {
    405a:	9e 01       	movw	r18, r28
    405c:	2f 5f       	subi	r18, 0xFF	; 255
    405e:	3f 4f       	sbci	r19, 0xFF	; 255
    4060:	79 01       	movw	r14, r18
    4062:	88 ef       	ldi	r24, 0xF8	; 248
    4064:	91 e0       	ldi	r25, 0x01	; 1
    4066:	d9 01       	movw	r26, r18
    4068:	fc 01       	movw	r30, r24
    406a:	1d 92       	st	X+, r1
    406c:	31 97       	sbiw	r30, 0x01	; 1
    406e:	e9 f7       	brne	.-6      	; 0x406a <simplify+0x4a>
    4070:	b1 e0       	ldi	r27, 0x01	; 1
    4072:	b9 83       	std	Y+1, r27	; 0x01
    4074:	8f ef       	ldi	r24, 0xFF	; 255
    4076:	8b 83       	std	Y+3, r24	; 0x03
    4078:	8c 83       	std	Y+4, r24	; 0x04
    407a:	b8 8b       	std	Y+16, r27	; 0x10
    407c:	89 8b       	std	Y+17, r24	; 0x11
    407e:	8a 8b       	std	Y+18, r24	; 0x12
    4080:	bd 8f       	std	Y+29, r27	; 0x1d
    4082:	be 8f       	std	Y+30, r27	; 0x1e
    4084:	8f 8f       	std	Y+31, r24	; 0x1f
    4086:	8a a3       	std	Y+34, r24	; 0x22
    4088:	a3 e0       	ldi	r26, 0x03	; 3
    408a:	ab a7       	std	Y+43, r26	; 0x2b
    408c:	52 e0       	ldi	r21, 0x02	; 2
    408e:	5c a7       	std	Y+44, r21	; 0x2c
    4090:	8d a7       	std	Y+45, r24	; 0x2d
    4092:	8e a7       	std	Y+46, r24	; 0x2e
    4094:	59 af       	std	Y+57, r21	; 0x39
    4096:	aa af       	std	Y+58, r26	; 0x3a
    4098:	8b af       	std	Y+59, r24	; 0x3b
    409a:	8c af       	std	Y+60, r24	; 0x3c
    409c:	28 96       	adiw	r28, 0x08	; 8
    409e:	af af       	std	Y+63, r26	; 0x3f
    40a0:	28 97       	sbiw	r28, 0x08	; 8
    40a2:	29 96       	adiw	r28, 0x09	; 9
    40a4:	af af       	std	Y+63, r26	; 0x3f
    40a6:	29 97       	sbiw	r28, 0x09	; 9
    40a8:	2a 96       	adiw	r28, 0x0a	; 10
    40aa:	8f af       	std	Y+63, r24	; 0x3f
    40ac:	2a 97       	sbiw	r28, 0x0a	; 10
    40ae:	2b 96       	adiw	r28, 0x0b	; 11
    40b0:	5f af       	std	Y+63, r21	; 0x3f
    40b2:	2b 97       	sbiw	r28, 0x0b	; 11
    40b4:	2c 96       	adiw	r28, 0x0c	; 12
    40b6:	5f af       	std	Y+63, r21	; 0x3f
    40b8:	2c 97       	sbiw	r28, 0x0c	; 12
    40ba:	2d 96       	adiw	r28, 0x0d	; 13
    40bc:	8f af       	std	Y+63, r24	; 0x3f
    40be:	2d 97       	sbiw	r28, 0x0d	; 13
    40c0:	f5 e0       	ldi	r31, 0x05	; 5
    40c2:	66 96       	adiw	r28, 0x16	; 22
    40c4:	ff af       	std	Y+63, r31	; 0x3f
    40c6:	66 97       	sbiw	r28, 0x16	; 22
    40c8:	44 e0       	ldi	r20, 0x04	; 4
    40ca:	67 96       	adiw	r28, 0x17	; 23
    40cc:	4f af       	std	Y+63, r20	; 0x3f
    40ce:	67 97       	sbiw	r28, 0x17	; 23
    40d0:	68 96       	adiw	r28, 0x18	; 24
    40d2:	8f af       	std	Y+63, r24	; 0x3f
    40d4:	68 97       	sbiw	r28, 0x18	; 24
    40d6:	69 96       	adiw	r28, 0x19	; 25
    40d8:	8f af       	std	Y+63, r24	; 0x3f
    40da:	69 97       	sbiw	r28, 0x19	; 25
    40dc:	a4 96       	adiw	r28, 0x24	; 36
    40de:	4f af       	std	Y+63, r20	; 0x3f
    40e0:	a4 97       	sbiw	r28, 0x24	; 36
    40e2:	a5 96       	adiw	r28, 0x25	; 37
    40e4:	ff af       	std	Y+63, r31	; 0x3f
    40e6:	a5 97       	sbiw	r28, 0x25	; 37
    40e8:	a6 96       	adiw	r28, 0x26	; 38
    40ea:	8f af       	std	Y+63, r24	; 0x3f
    40ec:	a6 97       	sbiw	r28, 0x26	; 38
    40ee:	a7 96       	adiw	r28, 0x27	; 39
    40f0:	8f af       	std	Y+63, r24	; 0x3f
    40f2:	a7 97       	sbiw	r28, 0x27	; 39
    40f4:	e2 96       	adiw	r28, 0x32	; 50
    40f6:	ff af       	std	Y+63, r31	; 0x3f
    40f8:	e2 97       	sbiw	r28, 0x32	; 50
    40fa:	e3 96       	adiw	r28, 0x33	; 51
    40fc:	ff af       	std	Y+63, r31	; 0x3f
    40fe:	e3 97       	sbiw	r28, 0x33	; 51
    4100:	e4 96       	adiw	r28, 0x34	; 52
    4102:	8f af       	std	Y+63, r24	; 0x3f
    4104:	e4 97       	sbiw	r28, 0x34	; 52
    4106:	e5 96       	adiw	r28, 0x35	; 53
    4108:	4f af       	std	Y+63, r20	; 0x3f
    410a:	e5 97       	sbiw	r28, 0x35	; 53
    410c:	e6 96       	adiw	r28, 0x36	; 54
    410e:	4f af       	std	Y+63, r20	; 0x3f
    4110:	e6 97       	sbiw	r28, 0x36	; 54
    4112:	e7 96       	adiw	r28, 0x37	; 55
    4114:	8f af       	std	Y+63, r24	; 0x3f
    4116:	e7 97       	sbiw	r28, 0x37	; 55
    4118:	c1 58       	subi	r28, 0x81	; 129
    411a:	df 4f       	sbci	r29, 0xFF	; 255
    411c:	58 83       	st	Y, r21
    411e:	cf 57       	subi	r28, 0x7F	; 127
    4120:	d0 40       	sbci	r29, 0x00	; 0
    4122:	36 e0       	ldi	r19, 0x06	; 6
    4124:	c0 58       	subi	r28, 0x80	; 128
    4126:	df 4f       	sbci	r29, 0xFF	; 255
    4128:	38 83       	st	Y, r19
    412a:	c0 58       	subi	r28, 0x80	; 128
    412c:	d0 40       	sbci	r29, 0x00	; 0
    412e:	cf 57       	subi	r28, 0x7F	; 127
    4130:	df 4f       	sbci	r29, 0xFF	; 255
    4132:	88 83       	st	Y, r24
    4134:	c1 58       	subi	r28, 0x81	; 129
    4136:	d0 40       	sbci	r29, 0x00	; 0
    4138:	ce 57       	subi	r28, 0x7E	; 126
    413a:	df 4f       	sbci	r29, 0xFF	; 255
    413c:	38 83       	st	Y, r19
    413e:	c2 58       	subi	r28, 0x82	; 130
    4140:	d0 40       	sbci	r29, 0x00	; 0
    4142:	cd 57       	subi	r28, 0x7D	; 125
    4144:	df 4f       	sbci	r29, 0xFF	; 255
    4146:	58 83       	st	Y, r21
    4148:	c3 58       	subi	r28, 0x83	; 131
    414a:	d0 40       	sbci	r29, 0x00	; 0
    414c:	cc 57       	subi	r28, 0x7C	; 124
    414e:	df 4f       	sbci	r29, 0xFF	; 255
    4150:	88 83       	st	Y, r24
    4152:	c4 58       	subi	r28, 0x84	; 132
    4154:	d0 40       	sbci	r29, 0x00	; 0
    4156:	c3 57       	subi	r28, 0x73	; 115
    4158:	df 4f       	sbci	r29, 0xFF	; 255
    415a:	a8 83       	st	Y, r26
    415c:	cd 58       	subi	r28, 0x8D	; 141
    415e:	d0 40       	sbci	r29, 0x00	; 0
    4160:	c2 57       	subi	r28, 0x72	; 114
    4162:	df 4f       	sbci	r29, 0xFF	; 255
    4164:	38 83       	st	Y, r19
    4166:	ce 58       	subi	r28, 0x8E	; 142
    4168:	d0 40       	sbci	r29, 0x00	; 0
    416a:	c1 57       	subi	r28, 0x71	; 113
    416c:	df 4f       	sbci	r29, 0xFF	; 255
    416e:	88 83       	st	Y, r24
    4170:	cf 58       	subi	r28, 0x8F	; 143
    4172:	d0 40       	sbci	r29, 0x00	; 0
    4174:	c0 57       	subi	r28, 0x70	; 112
    4176:	df 4f       	sbci	r29, 0xFF	; 255
    4178:	38 83       	st	Y, r19
    417a:	c0 59       	subi	r28, 0x90	; 144
    417c:	d0 40       	sbci	r29, 0x00	; 0
    417e:	cf 56       	subi	r28, 0x6F	; 111
    4180:	df 4f       	sbci	r29, 0xFF	; 255
    4182:	a8 83       	st	Y, r26
    4184:	c1 59       	subi	r28, 0x91	; 145
    4186:	d0 40       	sbci	r29, 0x00	; 0
    4188:	ce 56       	subi	r28, 0x6E	; 110
    418a:	df 4f       	sbci	r29, 0xFF	; 255
    418c:	88 83       	st	Y, r24
    418e:	c2 59       	subi	r28, 0x92	; 146
    4190:	d0 40       	sbci	r29, 0x00	; 0
    4192:	e7 e0       	ldi	r30, 0x07	; 7
    4194:	c5 56       	subi	r28, 0x65	; 101
    4196:	df 4f       	sbci	r29, 0xFF	; 255
    4198:	e8 83       	st	Y, r30
    419a:	cb 59       	subi	r28, 0x9B	; 155
    419c:	d0 40       	sbci	r29, 0x00	; 0
    419e:	c4 56       	subi	r28, 0x64	; 100
    41a0:	df 4f       	sbci	r29, 0xFF	; 255
    41a2:	38 83       	st	Y, r19
    41a4:	cc 59       	subi	r28, 0x9C	; 156
    41a6:	d0 40       	sbci	r29, 0x00	; 0
    41a8:	c3 56       	subi	r28, 0x63	; 99
    41aa:	df 4f       	sbci	r29, 0xFF	; 255
    41ac:	88 83       	st	Y, r24
    41ae:	cd 59       	subi	r28, 0x9D	; 157
    41b0:	d0 40       	sbci	r29, 0x00	; 0
    41b2:	c2 56       	subi	r28, 0x62	; 98
    41b4:	df 4f       	sbci	r29, 0xFF	; 255
    41b6:	88 83       	st	Y, r24
    41b8:	ce 59       	subi	r28, 0x9E	; 158
    41ba:	d0 40       	sbci	r29, 0x00	; 0
    41bc:	c7 55       	subi	r28, 0x57	; 87
    41be:	df 4f       	sbci	r29, 0xFF	; 255
    41c0:	58 83       	st	Y, r21
    41c2:	c9 5a       	subi	r28, 0xA9	; 169
    41c4:	d0 40       	sbci	r29, 0x00	; 0
    41c6:	c6 55       	subi	r28, 0x56	; 86
    41c8:	df 4f       	sbci	r29, 0xFF	; 255
    41ca:	e8 83       	st	Y, r30
    41cc:	ca 5a       	subi	r28, 0xAA	; 170
    41ce:	d0 40       	sbci	r29, 0x00	; 0
    41d0:	c5 55       	subi	r28, 0x55	; 85
    41d2:	df 4f       	sbci	r29, 0xFF	; 255
    41d4:	88 83       	st	Y, r24
    41d6:	cb 5a       	subi	r28, 0xAB	; 171
    41d8:	d0 40       	sbci	r29, 0x00	; 0
    41da:	c4 55       	subi	r28, 0x54	; 84
    41dc:	df 4f       	sbci	r29, 0xFF	; 255
    41de:	e8 83       	st	Y, r30
    41e0:	cc 5a       	subi	r28, 0xAC	; 172
    41e2:	d0 40       	sbci	r29, 0x00	; 0
    41e4:	c3 55       	subi	r28, 0x53	; 83
    41e6:	df 4f       	sbci	r29, 0xFF	; 255
    41e8:	58 83       	st	Y, r21
    41ea:	cd 5a       	subi	r28, 0xAD	; 173
    41ec:	d0 40       	sbci	r29, 0x00	; 0
    41ee:	c2 55       	subi	r28, 0x52	; 82
    41f0:	df 4f       	sbci	r29, 0xFF	; 255
    41f2:	88 83       	st	Y, r24
    41f4:	ce 5a       	subi	r28, 0xAE	; 174
    41f6:	d0 40       	sbci	r29, 0x00	; 0
    41f8:	c9 54       	subi	r28, 0x49	; 73
    41fa:	df 4f       	sbci	r29, 0xFF	; 255
    41fc:	a8 83       	st	Y, r26
    41fe:	c7 5b       	subi	r28, 0xB7	; 183
    4200:	d0 40       	sbci	r29, 0x00	; 0
    4202:	c8 54       	subi	r28, 0x48	; 72
    4204:	df 4f       	sbci	r29, 0xFF	; 255
    4206:	e8 83       	st	Y, r30
    4208:	c8 5b       	subi	r28, 0xB8	; 184
    420a:	d0 40       	sbci	r29, 0x00	; 0
    420c:	c7 54       	subi	r28, 0x47	; 71
    420e:	df 4f       	sbci	r29, 0xFF	; 255
    4210:	88 83       	st	Y, r24
    4212:	c9 5b       	subi	r28, 0xB9	; 185
    4214:	d0 40       	sbci	r29, 0x00	; 0
    4216:	c6 54       	subi	r28, 0x46	; 70
    4218:	df 4f       	sbci	r29, 0xFF	; 255
    421a:	e8 83       	st	Y, r30
    421c:	ca 5b       	subi	r28, 0xBA	; 186
    421e:	d0 40       	sbci	r29, 0x00	; 0
    4220:	c5 54       	subi	r28, 0x45	; 69
    4222:	df 4f       	sbci	r29, 0xFF	; 255
    4224:	a8 83       	st	Y, r26
    4226:	cb 5b       	subi	r28, 0xBB	; 187
    4228:	d0 40       	sbci	r29, 0x00	; 0
    422a:	c4 54       	subi	r28, 0x44	; 68
    422c:	df 4f       	sbci	r29, 0xFF	; 255
    422e:	88 83       	st	Y, r24
    4230:	cc 5b       	subi	r28, 0xBC	; 188
    4232:	d0 40       	sbci	r29, 0x00	; 0
    4234:	cb 53       	subi	r28, 0x3B	; 59
    4236:	df 4f       	sbci	r29, 0xFF	; 255
    4238:	38 83       	st	Y, r19
    423a:	c5 5c       	subi	r28, 0xC5	; 197
    423c:	d0 40       	sbci	r29, 0x00	; 0
    423e:	ca 53       	subi	r28, 0x3A	; 58
    4240:	df 4f       	sbci	r29, 0xFF	; 255
    4242:	e8 83       	st	Y, r30
    4244:	c6 5c       	subi	r28, 0xC6	; 198
    4246:	d0 40       	sbci	r29, 0x00	; 0
    4248:	c9 53       	subi	r28, 0x39	; 57
    424a:	df 4f       	sbci	r29, 0xFF	; 255
    424c:	88 83       	st	Y, r24
    424e:	c7 5c       	subi	r28, 0xC7	; 199
    4250:	d0 40       	sbci	r29, 0x00	; 0
    4252:	c8 53       	subi	r28, 0x38	; 56
    4254:	df 4f       	sbci	r29, 0xFF	; 255
    4256:	88 83       	st	Y, r24
    4258:	c8 5c       	subi	r28, 0xC8	; 200
    425a:	d0 40       	sbci	r29, 0x00	; 0
    425c:	cd 52       	subi	r28, 0x2D	; 45
    425e:	df 4f       	sbci	r29, 0xFF	; 255
    4260:	e8 83       	st	Y, r30
    4262:	c3 5d       	subi	r28, 0xD3	; 211
    4264:	d0 40       	sbci	r29, 0x00	; 0
    4266:	cc 52       	subi	r28, 0x2C	; 44
    4268:	df 4f       	sbci	r29, 0xFF	; 255
    426a:	e8 83       	st	Y, r30
    426c:	c4 5d       	subi	r28, 0xD4	; 212
    426e:	d0 40       	sbci	r29, 0x00	; 0
    4270:	cb 52       	subi	r28, 0x2B	; 43
    4272:	df 4f       	sbci	r29, 0xFF	; 255
    4274:	88 83       	st	Y, r24
    4276:	c5 5d       	subi	r28, 0xD5	; 213
    4278:	d0 40       	sbci	r29, 0x00	; 0
    427a:	ca 52       	subi	r28, 0x2A	; 42
    427c:	df 4f       	sbci	r29, 0xFF	; 255
    427e:	38 83       	st	Y, r19
    4280:	c6 5d       	subi	r28, 0xD6	; 214
    4282:	d0 40       	sbci	r29, 0x00	; 0
    4284:	c9 52       	subi	r28, 0x29	; 41
    4286:	df 4f       	sbci	r29, 0xFF	; 255
    4288:	38 83       	st	Y, r19
    428a:	c7 5d       	subi	r28, 0xD7	; 215
    428c:	d0 40       	sbci	r29, 0x00	; 0
    428e:	c8 52       	subi	r28, 0x28	; 40
    4290:	df 4f       	sbci	r29, 0xFF	; 255
    4292:	88 83       	st	Y, r24
    4294:	c8 5d       	subi	r28, 0xD8	; 216
    4296:	d0 40       	sbci	r29, 0x00	; 0
    4298:	cf 51       	subi	r28, 0x1F	; 31
    429a:	df 4f       	sbci	r29, 0xFF	; 255
    429c:	48 83       	st	Y, r20
    429e:	c1 5e       	subi	r28, 0xE1	; 225
    42a0:	d0 40       	sbci	r29, 0x00	; 0
    42a2:	28 e0       	ldi	r18, 0x08	; 8
    42a4:	ce 51       	subi	r28, 0x1E	; 30
    42a6:	df 4f       	sbci	r29, 0xFF	; 255
    42a8:	28 83       	st	Y, r18
    42aa:	c2 5e       	subi	r28, 0xE2	; 226
    42ac:	d0 40       	sbci	r29, 0x00	; 0
    42ae:	cd 51       	subi	r28, 0x1D	; 29
    42b0:	df 4f       	sbci	r29, 0xFF	; 255
    42b2:	88 83       	st	Y, r24
    42b4:	c3 5e       	subi	r28, 0xE3	; 227
    42b6:	d0 40       	sbci	r29, 0x00	; 0
    42b8:	cc 51       	subi	r28, 0x1C	; 28
    42ba:	df 4f       	sbci	r29, 0xFF	; 255
    42bc:	28 83       	st	Y, r18
    42be:	c4 5e       	subi	r28, 0xE4	; 228
    42c0:	d0 40       	sbci	r29, 0x00	; 0
    42c2:	cb 51       	subi	r28, 0x1B	; 27
    42c4:	df 4f       	sbci	r29, 0xFF	; 255
    42c6:	48 83       	st	Y, r20
    42c8:	c5 5e       	subi	r28, 0xE5	; 229
    42ca:	d0 40       	sbci	r29, 0x00	; 0
    42cc:	ca 51       	subi	r28, 0x1A	; 26
    42ce:	df 4f       	sbci	r29, 0xFF	; 255
    42d0:	88 83       	st	Y, r24
    42d2:	c6 5e       	subi	r28, 0xE6	; 230
    42d4:	d0 40       	sbci	r29, 0x00	; 0
    42d6:	c1 51       	subi	r28, 0x11	; 17
    42d8:	df 4f       	sbci	r29, 0xFF	; 255
    42da:	f8 83       	st	Y, r31
    42dc:	cf 5e       	subi	r28, 0xEF	; 239
    42de:	d0 40       	sbci	r29, 0x00	; 0
    42e0:	c0 51       	subi	r28, 0x10	; 16
    42e2:	df 4f       	sbci	r29, 0xFF	; 255
    42e4:	28 83       	st	Y, r18
    42e6:	c0 5f       	subi	r28, 0xF0	; 240
    42e8:	d0 40       	sbci	r29, 0x00	; 0
    42ea:	cf 50       	subi	r28, 0x0F	; 15
    42ec:	df 4f       	sbci	r29, 0xFF	; 255
    42ee:	88 83       	st	Y, r24
    42f0:	c1 5f       	subi	r28, 0xF1	; 241
    42f2:	d0 40       	sbci	r29, 0x00	; 0
    42f4:	ce 50       	subi	r28, 0x0E	; 14
    42f6:	df 4f       	sbci	r29, 0xFF	; 255
    42f8:	28 83       	st	Y, r18
    42fa:	c2 5f       	subi	r28, 0xF2	; 242
    42fc:	d0 40       	sbci	r29, 0x00	; 0
    42fe:	cd 50       	subi	r28, 0x0D	; 13
    4300:	df 4f       	sbci	r29, 0xFF	; 255
    4302:	f8 83       	st	Y, r31
    4304:	c3 5f       	subi	r28, 0xF3	; 243
    4306:	d0 40       	sbci	r29, 0x00	; 0
    4308:	cc 50       	subi	r28, 0x0C	; 12
    430a:	df 4f       	sbci	r29, 0xFF	; 255
    430c:	88 83       	st	Y, r24
    430e:	c4 5f       	subi	r28, 0xF4	; 244
    4310:	d0 40       	sbci	r29, 0x00	; 0
    4312:	79 e0       	ldi	r23, 0x09	; 9
    4314:	c3 50       	subi	r28, 0x03	; 3
    4316:	df 4f       	sbci	r29, 0xFF	; 255
    4318:	78 83       	st	Y, r23
    431a:	cd 5f       	subi	r28, 0xFD	; 253
    431c:	d0 40       	sbci	r29, 0x00	; 0
    431e:	c2 50       	subi	r28, 0x02	; 2
    4320:	df 4f       	sbci	r29, 0xFF	; 255
    4322:	28 83       	st	Y, r18
    4324:	ce 5f       	subi	r28, 0xFE	; 254
    4326:	d0 40       	sbci	r29, 0x00	; 0
    4328:	c1 50       	subi	r28, 0x01	; 1
    432a:	df 4f       	sbci	r29, 0xFF	; 255
    432c:	88 83       	st	Y, r24
    432e:	cf 5f       	subi	r28, 0xFF	; 255
    4330:	d0 40       	sbci	r29, 0x00	; 0
    4332:	c0 50       	subi	r28, 0x00	; 0
    4334:	df 4f       	sbci	r29, 0xFF	; 255
    4336:	88 83       	st	Y, r24
    4338:	c0 50       	subi	r28, 0x00	; 0
    433a:	d1 40       	sbci	r29, 0x01	; 1
    433c:	c5 5f       	subi	r28, 0xF5	; 245
    433e:	de 4f       	sbci	r29, 0xFE	; 254
    4340:	48 83       	st	Y, r20
    4342:	cb 50       	subi	r28, 0x0B	; 11
    4344:	d1 40       	sbci	r29, 0x01	; 1
    4346:	c4 5f       	subi	r28, 0xF4	; 244
    4348:	de 4f       	sbci	r29, 0xFE	; 254
    434a:	78 83       	st	Y, r23
    434c:	cc 50       	subi	r28, 0x0C	; 12
    434e:	d1 40       	sbci	r29, 0x01	; 1
    4350:	c3 5f       	subi	r28, 0xF3	; 243
    4352:	de 4f       	sbci	r29, 0xFE	; 254
    4354:	88 83       	st	Y, r24
    4356:	cd 50       	subi	r28, 0x0D	; 13
    4358:	d1 40       	sbci	r29, 0x01	; 1
    435a:	c2 5f       	subi	r28, 0xF2	; 242
    435c:	de 4f       	sbci	r29, 0xFE	; 254
    435e:	78 83       	st	Y, r23
    4360:	ce 50       	subi	r28, 0x0E	; 14
    4362:	d1 40       	sbci	r29, 0x01	; 1
    4364:	c1 5f       	subi	r28, 0xF1	; 241
    4366:	de 4f       	sbci	r29, 0xFE	; 254
    4368:	48 83       	st	Y, r20
    436a:	cf 50       	subi	r28, 0x0F	; 15
    436c:	d1 40       	sbci	r29, 0x01	; 1
    436e:	c0 5f       	subi	r28, 0xF0	; 240
    4370:	de 4f       	sbci	r29, 0xFE	; 254
    4372:	88 83       	st	Y, r24
    4374:	c0 51       	subi	r28, 0x10	; 16
    4376:	d1 40       	sbci	r29, 0x01	; 1
    4378:	c7 5e       	subi	r28, 0xE7	; 231
    437a:	de 4f       	sbci	r29, 0xFE	; 254
    437c:	f8 83       	st	Y, r31
    437e:	c9 51       	subi	r28, 0x19	; 25
    4380:	d1 40       	sbci	r29, 0x01	; 1
    4382:	c6 5e       	subi	r28, 0xE6	; 230
    4384:	de 4f       	sbci	r29, 0xFE	; 254
    4386:	78 83       	st	Y, r23
    4388:	ca 51       	subi	r28, 0x1A	; 26
    438a:	d1 40       	sbci	r29, 0x01	; 1
    438c:	c5 5e       	subi	r28, 0xE5	; 229
    438e:	de 4f       	sbci	r29, 0xFE	; 254
    4390:	88 83       	st	Y, r24
    4392:	cb 51       	subi	r28, 0x1B	; 27
    4394:	d1 40       	sbci	r29, 0x01	; 1
    4396:	c4 5e       	subi	r28, 0xE4	; 228
    4398:	de 4f       	sbci	r29, 0xFE	; 254
    439a:	78 83       	st	Y, r23
    439c:	cc 51       	subi	r28, 0x1C	; 28
    439e:	d1 40       	sbci	r29, 0x01	; 1
    43a0:	c3 5e       	subi	r28, 0xE3	; 227
    43a2:	de 4f       	sbci	r29, 0xFE	; 254
    43a4:	f8 83       	st	Y, r31
    43a6:	cd 51       	subi	r28, 0x1D	; 29
    43a8:	d1 40       	sbci	r29, 0x01	; 1
    43aa:	c2 5e       	subi	r28, 0xE2	; 226
    43ac:	de 4f       	sbci	r29, 0xFE	; 254
    43ae:	88 83       	st	Y, r24
    43b0:	ce 51       	subi	r28, 0x1E	; 30
    43b2:	d1 40       	sbci	r29, 0x01	; 1
    43b4:	c9 5d       	subi	r28, 0xD9	; 217
    43b6:	de 4f       	sbci	r29, 0xFE	; 254
    43b8:	28 83       	st	Y, r18
    43ba:	c7 52       	subi	r28, 0x27	; 39
    43bc:	d1 40       	sbci	r29, 0x01	; 1
    43be:	c8 5d       	subi	r28, 0xD8	; 216
    43c0:	de 4f       	sbci	r29, 0xFE	; 254
    43c2:	78 83       	st	Y, r23
    43c4:	c8 52       	subi	r28, 0x28	; 40
    43c6:	d1 40       	sbci	r29, 0x01	; 1
    43c8:	c7 5d       	subi	r28, 0xD7	; 215
    43ca:	de 4f       	sbci	r29, 0xFE	; 254
    43cc:	88 83       	st	Y, r24
    43ce:	c9 52       	subi	r28, 0x29	; 41
    43d0:	d1 40       	sbci	r29, 0x01	; 1
    43d2:	c6 5d       	subi	r28, 0xD6	; 214
    43d4:	de 4f       	sbci	r29, 0xFE	; 254
    43d6:	88 83       	st	Y, r24
    43d8:	ca 52       	subi	r28, 0x2A	; 42
    43da:	d1 40       	sbci	r29, 0x01	; 1
    43dc:	cb 5c       	subi	r28, 0xCB	; 203
    43de:	de 4f       	sbci	r29, 0xFE	; 254
    43e0:	78 83       	st	Y, r23
    43e2:	c5 53       	subi	r28, 0x35	; 53
    43e4:	d1 40       	sbci	r29, 0x01	; 1
    43e6:	ca 5c       	subi	r28, 0xCA	; 202
    43e8:	de 4f       	sbci	r29, 0xFE	; 254
    43ea:	78 83       	st	Y, r23
    43ec:	c6 53       	subi	r28, 0x36	; 54
    43ee:	d1 40       	sbci	r29, 0x01	; 1
    43f0:	c9 5c       	subi	r28, 0xC9	; 201
    43f2:	de 4f       	sbci	r29, 0xFE	; 254
    43f4:	88 83       	st	Y, r24
    43f6:	c7 53       	subi	r28, 0x37	; 55
    43f8:	d1 40       	sbci	r29, 0x01	; 1
    43fa:	c8 5c       	subi	r28, 0xC8	; 200
    43fc:	de 4f       	sbci	r29, 0xFE	; 254
    43fe:	28 83       	st	Y, r18
    4400:	c8 53       	subi	r28, 0x38	; 56
    4402:	d1 40       	sbci	r29, 0x01	; 1
    4404:	c7 5c       	subi	r28, 0xC7	; 199
    4406:	de 4f       	sbci	r29, 0xFE	; 254
    4408:	28 83       	st	Y, r18
    440a:	c9 53       	subi	r28, 0x39	; 57
    440c:	d1 40       	sbci	r29, 0x01	; 1
    440e:	c6 5c       	subi	r28, 0xC6	; 198
    4410:	de 4f       	sbci	r29, 0xFE	; 254
    4412:	88 83       	st	Y, r24
    4414:	ca 53       	subi	r28, 0x3A	; 58
    4416:	d1 40       	sbci	r29, 0x01	; 1
    4418:	9a e0       	ldi	r25, 0x0A	; 10
    441a:	cc 5b       	subi	r28, 0xBC	; 188
    441c:	de 4f       	sbci	r29, 0xFE	; 254
    441e:	98 83       	st	Y, r25
    4420:	c4 54       	subi	r28, 0x44	; 68
    4422:	d1 40       	sbci	r29, 0x01	; 1
    4424:	cb 5b       	subi	r28, 0xBB	; 187
    4426:	de 4f       	sbci	r29, 0xFE	; 254
    4428:	88 83       	st	Y, r24
    442a:	c5 54       	subi	r28, 0x45	; 69
    442c:	d1 40       	sbci	r29, 0x01	; 1
    442e:	ca 5b       	subi	r28, 0xBA	; 186
    4430:	de 4f       	sbci	r29, 0xFE	; 254
    4432:	98 83       	st	Y, r25
    4434:	c6 54       	subi	r28, 0x46	; 70
    4436:	d1 40       	sbci	r29, 0x01	; 1
    4438:	c8 5b       	subi	r28, 0xB8	; 184
    443a:	de 4f       	sbci	r29, 0xFE	; 254
    443c:	88 83       	st	Y, r24
    443e:	c8 54       	subi	r28, 0x48	; 72
    4440:	d1 40       	sbci	r29, 0x01	; 1
    4442:	cf 5a       	subi	r28, 0xAF	; 175
    4444:	de 4f       	sbci	r29, 0xFE	; 254
    4446:	b8 83       	st	Y, r27
    4448:	c1 55       	subi	r28, 0x51	; 81
    444a:	d1 40       	sbci	r29, 0x01	; 1
    444c:	ce 5a       	subi	r28, 0xAE	; 174
    444e:	de 4f       	sbci	r29, 0xFE	; 254
    4450:	98 83       	st	Y, r25
    4452:	c2 55       	subi	r28, 0x52	; 82
    4454:	d1 40       	sbci	r29, 0x01	; 1
    4456:	cd 5a       	subi	r28, 0xAD	; 173
    4458:	de 4f       	sbci	r29, 0xFE	; 254
    445a:	88 83       	st	Y, r24
    445c:	c3 55       	subi	r28, 0x53	; 83
    445e:	d1 40       	sbci	r29, 0x01	; 1
    4460:	cc 5a       	subi	r28, 0xAC	; 172
    4462:	de 4f       	sbci	r29, 0xFE	; 254
    4464:	98 83       	st	Y, r25
    4466:	c4 55       	subi	r28, 0x54	; 84
    4468:	d1 40       	sbci	r29, 0x01	; 1
    446a:	cb 5a       	subi	r28, 0xAB	; 171
    446c:	de 4f       	sbci	r29, 0xFE	; 254
    446e:	b8 83       	st	Y, r27
    4470:	c5 55       	subi	r28, 0x55	; 85
    4472:	d1 40       	sbci	r29, 0x01	; 1
    4474:	ca 5a       	subi	r28, 0xAA	; 170
    4476:	de 4f       	sbci	r29, 0xFE	; 254
    4478:	88 83       	st	Y, r24
    447a:	c6 55       	subi	r28, 0x56	; 86
    447c:	d1 40       	sbci	r29, 0x01	; 1
    447e:	6b e0       	ldi	r22, 0x0B	; 11
    4480:	c1 5a       	subi	r28, 0xA1	; 161
    4482:	de 4f       	sbci	r29, 0xFE	; 254
    4484:	68 83       	st	Y, r22
    4486:	cf 55       	subi	r28, 0x5F	; 95
    4488:	d1 40       	sbci	r29, 0x01	; 1
    448a:	c0 5a       	subi	r28, 0xA0	; 160
    448c:	de 4f       	sbci	r29, 0xFE	; 254
    448e:	98 83       	st	Y, r25
    4490:	c0 56       	subi	r28, 0x60	; 96
    4492:	d1 40       	sbci	r29, 0x01	; 1
    4494:	cf 59       	subi	r28, 0x9F	; 159
    4496:	de 4f       	sbci	r29, 0xFE	; 254
    4498:	88 83       	st	Y, r24
    449a:	c1 56       	subi	r28, 0x61	; 97
    449c:	d1 40       	sbci	r29, 0x01	; 1
    449e:	ce 59       	subi	r28, 0x9E	; 158
    44a0:	de 4f       	sbci	r29, 0xFE	; 254
    44a2:	88 83       	st	Y, r24
    44a4:	c2 56       	subi	r28, 0x62	; 98
    44a6:	d1 40       	sbci	r29, 0x01	; 1
    44a8:	c2 59       	subi	r28, 0x92	; 146
    44aa:	de 4f       	sbci	r29, 0xFE	; 254
    44ac:	68 83       	st	Y, r22
    44ae:	ce 56       	subi	r28, 0x6E	; 110
    44b0:	d1 40       	sbci	r29, 0x01	; 1
    44b2:	c1 59       	subi	r28, 0x91	; 145
    44b4:	de 4f       	sbci	r29, 0xFE	; 254
    44b6:	88 83       	st	Y, r24
    44b8:	cf 56       	subi	r28, 0x6F	; 111
    44ba:	d1 40       	sbci	r29, 0x01	; 1
    44bc:	c0 59       	subi	r28, 0x90	; 144
    44be:	de 4f       	sbci	r29, 0xFE	; 254
    44c0:	68 83       	st	Y, r22
    44c2:	c0 57       	subi	r28, 0x70	; 112
    44c4:	d1 40       	sbci	r29, 0x01	; 1
    44c6:	ce 58       	subi	r28, 0x8E	; 142
    44c8:	de 4f       	sbci	r29, 0xFE	; 254
    44ca:	88 83       	st	Y, r24
    44cc:	c2 57       	subi	r28, 0x72	; 114
    44ce:	d1 40       	sbci	r29, 0x01	; 1
    44d0:	c5 58       	subi	r28, 0x85	; 133
    44d2:	de 4f       	sbci	r29, 0xFE	; 254
    44d4:	b8 83       	st	Y, r27
    44d6:	cb 57       	subi	r28, 0x7B	; 123
    44d8:	d1 40       	sbci	r29, 0x01	; 1
    44da:	c4 58       	subi	r28, 0x84	; 132
    44dc:	de 4f       	sbci	r29, 0xFE	; 254
    44de:	68 83       	st	Y, r22
    44e0:	cc 57       	subi	r28, 0x7C	; 124
    44e2:	d1 40       	sbci	r29, 0x01	; 1
    44e4:	c3 58       	subi	r28, 0x83	; 131
    44e6:	de 4f       	sbci	r29, 0xFE	; 254
    44e8:	88 83       	st	Y, r24
    44ea:	cd 57       	subi	r28, 0x7D	; 125
    44ec:	d1 40       	sbci	r29, 0x01	; 1
    44ee:	c2 58       	subi	r28, 0x82	; 130
    44f0:	de 4f       	sbci	r29, 0xFE	; 254
    44f2:	68 83       	st	Y, r22
    44f4:	ce 57       	subi	r28, 0x7E	; 126
    44f6:	d1 40       	sbci	r29, 0x01	; 1
    44f8:	c1 58       	subi	r28, 0x81	; 129
    44fa:	de 4f       	sbci	r29, 0xFE	; 254
    44fc:	b8 83       	st	Y, r27
    44fe:	cf 57       	subi	r28, 0x7F	; 127
    4500:	d1 40       	sbci	r29, 0x01	; 1
    4502:	c0 58       	subi	r28, 0x80	; 128
    4504:	de 4f       	sbci	r29, 0xFE	; 254
    4506:	88 83       	st	Y, r24
    4508:	c0 58       	subi	r28, 0x80	; 128
    450a:	d1 40       	sbci	r29, 0x01	; 1
    450c:	c7 57       	subi	r28, 0x77	; 119
    450e:	de 4f       	sbci	r29, 0xFE	; 254
    4510:	98 83       	st	Y, r25
    4512:	c9 58       	subi	r28, 0x89	; 137
    4514:	d1 40       	sbci	r29, 0x01	; 1
    4516:	c6 57       	subi	r28, 0x76	; 118
    4518:	de 4f       	sbci	r29, 0xFE	; 254
    451a:	68 83       	st	Y, r22
    451c:	ca 58       	subi	r28, 0x8A	; 138
    451e:	d1 40       	sbci	r29, 0x01	; 1
    4520:	c5 57       	subi	r28, 0x75	; 117
    4522:	de 4f       	sbci	r29, 0xFE	; 254
    4524:	88 83       	st	Y, r24
    4526:	cb 58       	subi	r28, 0x8B	; 139
    4528:	d1 40       	sbci	r29, 0x01	; 1
    452a:	c4 57       	subi	r28, 0x74	; 116
    452c:	de 4f       	sbci	r29, 0xFE	; 254
    452e:	88 83       	st	Y, r24
    4530:	cc 58       	subi	r28, 0x8C	; 140
    4532:	d1 40       	sbci	r29, 0x01	; 1
    4534:	c9 56       	subi	r28, 0x69	; 105
    4536:	de 4f       	sbci	r29, 0xFE	; 254
    4538:	68 83       	st	Y, r22
    453a:	c7 59       	subi	r28, 0x97	; 151
    453c:	d1 40       	sbci	r29, 0x01	; 1
    453e:	c8 56       	subi	r28, 0x68	; 104
    4540:	de 4f       	sbci	r29, 0xFE	; 254
    4542:	68 83       	st	Y, r22
    4544:	c8 59       	subi	r28, 0x98	; 152
    4546:	d1 40       	sbci	r29, 0x01	; 1
    4548:	c7 56       	subi	r28, 0x67	; 103
    454a:	de 4f       	sbci	r29, 0xFE	; 254
    454c:	88 83       	st	Y, r24
    454e:	c9 59       	subi	r28, 0x99	; 153
    4550:	d1 40       	sbci	r29, 0x01	; 1
    4552:	c6 56       	subi	r28, 0x66	; 102
    4554:	de 4f       	sbci	r29, 0xFE	; 254
    4556:	98 83       	st	Y, r25
    4558:	ca 59       	subi	r28, 0x9A	; 154
    455a:	d1 40       	sbci	r29, 0x01	; 1
    455c:	c5 56       	subi	r28, 0x65	; 101
    455e:	de 4f       	sbci	r29, 0xFE	; 254
    4560:	98 83       	st	Y, r25
    4562:	cb 59       	subi	r28, 0x9B	; 155
    4564:	d1 40       	sbci	r29, 0x01	; 1
    4566:	c4 56       	subi	r28, 0x64	; 100
    4568:	de 4f       	sbci	r29, 0xFE	; 254
    456a:	88 83       	st	Y, r24
    456c:	cc 59       	subi	r28, 0x9C	; 156
    456e:	d1 40       	sbci	r29, 0x01	; 1
    4570:	c8 55       	subi	r28, 0x58	; 88
    4572:	de 4f       	sbci	r29, 0xFE	; 254
    4574:	88 83       	st	Y, r24
    4576:	c8 5a       	subi	r28, 0xA8	; 168
    4578:	d1 40       	sbci	r29, 0x01	; 1
    457a:	c7 55       	subi	r28, 0x57	; 87
    457c:	de 4f       	sbci	r29, 0xFE	; 254
    457e:	b8 83       	st	Y, r27
    4580:	c9 5a       	subi	r28, 0xA9	; 169
    4582:	d1 40       	sbci	r29, 0x01	; 1
    4584:	c6 55       	subi	r28, 0x56	; 86
    4586:	de 4f       	sbci	r29, 0xFE	; 254
    4588:	88 83       	st	Y, r24
    458a:	ca 5a       	subi	r28, 0xAA	; 170
    458c:	d1 40       	sbci	r29, 0x01	; 1
    458e:	cd 54       	subi	r28, 0x4D	; 77
    4590:	de 4f       	sbci	r29, 0xFE	; 254
    4592:	58 83       	st	Y, r21
    4594:	c3 5b       	subi	r28, 0xB3	; 179
    4596:	d1 40       	sbci	r29, 0x01	; 1
    4598:	cc 54       	subi	r28, 0x4C	; 76
    459a:	de 4f       	sbci	r29, 0xFE	; 254
    459c:	58 83       	st	Y, r21
    459e:	c4 5b       	subi	r28, 0xB4	; 180
    45a0:	d1 40       	sbci	r29, 0x01	; 1
    45a2:	cb 54       	subi	r28, 0x4B	; 75
    45a4:	de 4f       	sbci	r29, 0xFE	; 254
    45a6:	58 83       	st	Y, r21
    45a8:	c5 5b       	subi	r28, 0xB5	; 181
    45aa:	d1 40       	sbci	r29, 0x01	; 1
    45ac:	ca 54       	subi	r28, 0x4A	; 74
    45ae:	de 4f       	sbci	r29, 0xFE	; 254
    45b0:	88 83       	st	Y, r24
    45b2:	c6 5b       	subi	r28, 0xB6	; 182
    45b4:	d1 40       	sbci	r29, 0x01	; 1
    45b6:	c9 54       	subi	r28, 0x49	; 73
    45b8:	de 4f       	sbci	r29, 0xFE	; 254
    45ba:	a8 83       	st	Y, r26
    45bc:	c7 5b       	subi	r28, 0xB7	; 183
    45be:	d1 40       	sbci	r29, 0x01	; 1
    45c0:	c8 54       	subi	r28, 0x48	; 72
    45c2:	de 4f       	sbci	r29, 0xFE	; 254
    45c4:	88 83       	st	Y, r24
    45c6:	c8 5b       	subi	r28, 0xB8	; 184
    45c8:	d1 40       	sbci	r29, 0x01	; 1
    45ca:	cf 53       	subi	r28, 0x3F	; 63
    45cc:	de 4f       	sbci	r29, 0xFE	; 254
    45ce:	48 83       	st	Y, r20
    45d0:	c1 5c       	subi	r28, 0xC1	; 193
    45d2:	d1 40       	sbci	r29, 0x01	; 1
    45d4:	ce 53       	subi	r28, 0x3E	; 62
    45d6:	de 4f       	sbci	r29, 0xFE	; 254
    45d8:	48 83       	st	Y, r20
    45da:	c2 5c       	subi	r28, 0xC2	; 194
    45dc:	d1 40       	sbci	r29, 0x01	; 1
    45de:	cd 53       	subi	r28, 0x3D	; 61
    45e0:	de 4f       	sbci	r29, 0xFE	; 254
    45e2:	48 83       	st	Y, r20
    45e4:	c3 5c       	subi	r28, 0xC3	; 195
    45e6:	d1 40       	sbci	r29, 0x01	; 1
    45e8:	cc 53       	subi	r28, 0x3C	; 60
    45ea:	de 4f       	sbci	r29, 0xFE	; 254
    45ec:	88 83       	st	Y, r24
    45ee:	c4 5c       	subi	r28, 0xC4	; 196
    45f0:	d1 40       	sbci	r29, 0x01	; 1
    45f2:	cb 53       	subi	r28, 0x3B	; 59
    45f4:	de 4f       	sbci	r29, 0xFE	; 254
    45f6:	f8 83       	st	Y, r31
    45f8:	c5 5c       	subi	r28, 0xC5	; 197
    45fa:	d1 40       	sbci	r29, 0x01	; 1
    45fc:	ca 53       	subi	r28, 0x3A	; 58
    45fe:	de 4f       	sbci	r29, 0xFE	; 254
    4600:	88 83       	st	Y, r24
    4602:	c6 5c       	subi	r28, 0xC6	; 198
    4604:	d1 40       	sbci	r29, 0x01	; 1
    4606:	c1 53       	subi	r28, 0x31	; 49
    4608:	de 4f       	sbci	r29, 0xFE	; 254
    460a:	38 83       	st	Y, r19
    460c:	cf 5c       	subi	r28, 0xCF	; 207
    460e:	d1 40       	sbci	r29, 0x01	; 1
    4610:	c0 53       	subi	r28, 0x30	; 48
    4612:	de 4f       	sbci	r29, 0xFE	; 254
    4614:	38 83       	st	Y, r19
    4616:	c0 5d       	subi	r28, 0xD0	; 208
    4618:	d1 40       	sbci	r29, 0x01	; 1
    461a:	cf 52       	subi	r28, 0x2F	; 47
    461c:	de 4f       	sbci	r29, 0xFE	; 254
    461e:	38 83       	st	Y, r19
    4620:	c1 5d       	subi	r28, 0xD1	; 209
    4622:	d1 40       	sbci	r29, 0x01	; 1
    4624:	ce 52       	subi	r28, 0x2E	; 46
    4626:	de 4f       	sbci	r29, 0xFE	; 254
    4628:	88 83       	st	Y, r24
    462a:	c2 5d       	subi	r28, 0xD2	; 210
    462c:	d1 40       	sbci	r29, 0x01	; 1
    462e:	cd 52       	subi	r28, 0x2D	; 45
    4630:	de 4f       	sbci	r29, 0xFE	; 254
    4632:	e8 83       	st	Y, r30
    4634:	c3 5d       	subi	r28, 0xD3	; 211
    4636:	d1 40       	sbci	r29, 0x01	; 1
    4638:	cc 52       	subi	r28, 0x2C	; 44
    463a:	de 4f       	sbci	r29, 0xFE	; 254
    463c:	88 83       	st	Y, r24
    463e:	c4 5d       	subi	r28, 0xD4	; 212
    4640:	d1 40       	sbci	r29, 0x01	; 1
    4642:	c3 52       	subi	r28, 0x23	; 35
    4644:	de 4f       	sbci	r29, 0xFE	; 254
    4646:	28 83       	st	Y, r18
    4648:	cd 5d       	subi	r28, 0xDD	; 221
    464a:	d1 40       	sbci	r29, 0x01	; 1
    464c:	c2 52       	subi	r28, 0x22	; 34
    464e:	de 4f       	sbci	r29, 0xFE	; 254
    4650:	28 83       	st	Y, r18
    4652:	ce 5d       	subi	r28, 0xDE	; 222
    4654:	d1 40       	sbci	r29, 0x01	; 1
    4656:	c1 52       	subi	r28, 0x21	; 33
    4658:	de 4f       	sbci	r29, 0xFE	; 254
    465a:	28 83       	st	Y, r18
    465c:	cf 5d       	subi	r28, 0xDF	; 223
    465e:	d1 40       	sbci	r29, 0x01	; 1
    4660:	c0 52       	subi	r28, 0x20	; 32
    4662:	de 4f       	sbci	r29, 0xFE	; 254
    4664:	88 83       	st	Y, r24
    4666:	c0 5e       	subi	r28, 0xE0	; 224
    4668:	d1 40       	sbci	r29, 0x01	; 1
    466a:	cf 51       	subi	r28, 0x1F	; 31
    466c:	de 4f       	sbci	r29, 0xFE	; 254
    466e:	78 83       	st	Y, r23
    4670:	c1 5e       	subi	r28, 0xE1	; 225
    4672:	d1 40       	sbci	r29, 0x01	; 1
    4674:	ce 51       	subi	r28, 0x1E	; 30
    4676:	de 4f       	sbci	r29, 0xFE	; 254
    4678:	88 83       	st	Y, r24
    467a:	c2 5e       	subi	r28, 0xE2	; 226
    467c:	d1 40       	sbci	r29, 0x01	; 1
    467e:	c5 51       	subi	r28, 0x15	; 21
    4680:	de 4f       	sbci	r29, 0xFE	; 254
    4682:	98 83       	st	Y, r25
    4684:	cb 5e       	subi	r28, 0xEB	; 235
    4686:	d1 40       	sbci	r29, 0x01	; 1
    4688:	c4 51       	subi	r28, 0x14	; 20
    468a:	de 4f       	sbci	r29, 0xFE	; 254
    468c:	98 83       	st	Y, r25
    468e:	cc 5e       	subi	r28, 0xEC	; 236
    4690:	d1 40       	sbci	r29, 0x01	; 1
    4692:	c3 51       	subi	r28, 0x13	; 19
    4694:	de 4f       	sbci	r29, 0xFE	; 254
    4696:	98 83       	st	Y, r25
    4698:	cd 5e       	subi	r28, 0xED	; 237
    469a:	d1 40       	sbci	r29, 0x01	; 1
    469c:	c2 51       	subi	r28, 0x12	; 18
    469e:	de 4f       	sbci	r29, 0xFE	; 254
    46a0:	88 83       	st	Y, r24
    46a2:	ce 5e       	subi	r28, 0xEE	; 238
    46a4:	d1 40       	sbci	r29, 0x01	; 1
    46a6:	c1 51       	subi	r28, 0x11	; 17
    46a8:	de 4f       	sbci	r29, 0xFE	; 254
    46aa:	68 83       	st	Y, r22
    46ac:	cf 5e       	subi	r28, 0xEF	; 239
    46ae:	d1 40       	sbci	r29, 0x01	; 1
    46b0:	c0 51       	subi	r28, 0x10	; 16
    46b2:	de 4f       	sbci	r29, 0xFE	; 254
    46b4:	88 83       	st	Y, r24
    46b6:	c0 5f       	subi	r28, 0xF0	; 240
    46b8:	d1 40       	sbci	r29, 0x01	; 1
       {6, 6, 6, -1,   7, -1},
       {8, 8, 8, -1,   9, -1},
       {10, 10, 10, -1,   11, -1}};//const uint8_t P[780][14] = {
   int a, b, c, d, e, T;
   int i, j, k;
   for(T=0;l[T]>=0;T++);//T - Tamanho do vetor L
    46ba:	f8 01       	movw	r30, r16
    46bc:	2f 01       	movw	r4, r30
    46be:	40 1a       	sub	r4, r16
    46c0:	51 0a       	sbc	r5, r17
    46c2:	81 91       	ld	r24, Z+
    46c4:	87 ff       	sbrs	r24, 7
    46c6:	fa cf       	rjmp	.-12     	; 0x46bc <simplify+0x69c>
    46c8:	20 e0       	ldi	r18, 0x00	; 0
    46ca:	30 e0       	ldi	r19, 0x00	; 0
   for(a=0;a<T;a++){
    46cc:	24 15       	cp	r18, r4
    46ce:	35 05       	cpc	r19, r5
    46d0:	0c f0       	brlt	.+2      	; 0x46d4 <simplify+0x6b4>
    46d2:	7c c0       	rjmp	.+248    	; 0x47cc <simplify+0x7ac>
    46d4:	a7 01       	movw	r20, r14
    46d6:	60 e0       	ldi	r22, 0x00	; 0
    46d8:	70 e0       	ldi	r23, 0x00	; 0
       {6, 6, 6, -1,   7, -1},
       {8, 8, 8, -1,   9, -1},
       {10, 10, 10, -1,   11, -1}};//const uint8_t P[780][14] = {
   int a, b, c, d, e, T;
   int i, j, k;
   for(T=0;l[T]>=0;T++);//T - Tamanho do vetor L
    46da:	80 e0       	ldi	r24, 0x00	; 0
    46dc:	90 e0       	ldi	r25, 0x00	; 0
    46de:	a0 e0       	ldi	r26, 0x00	; 0
    46e0:	b0 e0       	ldi	r27, 0x00	; 0
    46e2:	6a 01       	movw	r12, r20
    46e4:	ca 0e       	add	r12, r26
    46e6:	db 1e       	adc	r13, r27
   for(a=0;a<T;a++){
      d = 0;
      for(b=0;b<36 && !d;b++){
         e = 0;
         for(c=0;P[b][c]>=0 && !e;c++)if(P[b][c]!=l[a+c])e = 1;
    46e8:	f6 01       	movw	r30, r12
    46ea:	d0 80       	ld	r13, Z
    46ec:	d7 fc       	sbrc	r13, 7
    46ee:	14 c0       	rjmp	.+40     	; 0x4718 <simplify+0x6f8>
    46f0:	89 2b       	or	r24, r25
    46f2:	09 f0       	breq	.+2      	; 0x46f6 <simplify+0x6d6>
    46f4:	85 c0       	rjmp	.+266    	; 0x4800 <simplify+0x7e0>
    46f6:	cd 01       	movw	r24, r26
    46f8:	82 0f       	add	r24, r18
    46fa:	93 1f       	adc	r25, r19
    46fc:	80 0f       	add	r24, r16
    46fe:	91 1f       	adc	r25, r17
    4700:	bb 24       	eor	r11, r11
    4702:	b3 94       	inc	r11
    4704:	c1 2c       	mov	r12, r1
    4706:	fc 01       	movw	r30, r24
    4708:	80 81       	ld	r24, Z
    470a:	d8 12       	cpse	r13, r24
    470c:	01 c0       	rjmp	.+2      	; 0x4710 <simplify+0x6f0>
    470e:	b1 2c       	mov	r11, r1
    4710:	8b 2d       	mov	r24, r11
    4712:	9c 2d       	mov	r25, r12
    4714:	11 96       	adiw	r26, 0x01	; 1
    4716:	e5 cf       	rjmp	.-54     	; 0x46e2 <simplify+0x6c2>
         if(!e){
    4718:	89 2b       	or	r24, r25
    471a:	09 f0       	breq	.+2      	; 0x471e <simplify+0x6fe>
    471c:	71 c0       	rjmp	.+226    	; 0x4800 <simplify+0x7e0>
    471e:	80 e0       	ldi	r24, 0x00	; 0
    4720:	90 e0       	ldi	r25, 0x00	; 0
    4722:	fa 01       	movw	r30, r20
    4724:	e8 0f       	add	r30, r24
    4726:	f9 1f       	adc	r31, r25
            d = 1;//achou elemento, tem que resetar lista
            //Substituir sequencia
            for(i=0;P[b][i]>=0;i++);//tamanho a ser substituido
    4728:	e0 81       	ld	r30, Z
    472a:	e7 fd       	sbrc	r30, 7
    472c:	02 c0       	rjmp	.+4      	; 0x4732 <simplify+0x712>
    472e:	01 96       	adiw	r24, 0x01	; 1
    4730:	f8 cf       	rjmp	.-16     	; 0x4722 <simplify+0x702>
    4732:	40 e0       	ldi	r20, 0x00	; 0
    4734:	50 e0       	ldi	r21, 0x00	; 0
    4736:	68 0f       	add	r22, r24
    4738:	79 1f       	adc	r23, r25
    473a:	6e 0d       	add	r22, r14
    473c:	7f 1d       	adc	r23, r15
    473e:	fb 01       	movw	r30, r22
    4740:	e4 0f       	add	r30, r20
    4742:	f5 1f       	adc	r31, r21
            for(j=0;P[b][i+j+1]>=0;j++);//tamanho da nova sequencia
    4744:	e1 81       	ldd	r30, Z+1	; 0x01
    4746:	e7 fd       	sbrc	r30, 7
    4748:	03 c0       	rjmp	.+6      	; 0x4750 <simplify+0x730>
    474a:	4f 5f       	subi	r20, 0xFF	; 255
    474c:	5f 4f       	sbci	r21, 0xFF	; 255
    474e:	f7 cf       	rjmp	.-18     	; 0x473e <simplify+0x71e>
    4750:	e0 e0       	ldi	r30, 0x00	; 0
    4752:	f0 e0       	ldi	r31, 0x00	; 0
            for(k=0;k<j;k++)l[a+k]=P[b][i+1+k];//copia sequencia
    4754:	e4 17       	cp	r30, r20
    4756:	f5 07       	cpc	r31, r21
    4758:	79 f0       	breq	.+30     	; 0x4778 <simplify+0x758>
    475a:	5f 01       	movw	r10, r30
    475c:	a2 0e       	add	r10, r18
    475e:	b3 1e       	adc	r11, r19
    4760:	a0 0e       	add	r10, r16
    4762:	b1 1e       	adc	r11, r17
    4764:	6b 01       	movw	r12, r22
    4766:	ce 0e       	add	r12, r30
    4768:	df 1e       	adc	r13, r31
    476a:	d6 01       	movw	r26, r12
    476c:	11 96       	adiw	r26, 0x01	; 1
    476e:	dc 90       	ld	r13, X
    4770:	d5 01       	movw	r26, r10
    4772:	dc 92       	st	X, r13
    4774:	31 96       	adiw	r30, 0x01	; 1
    4776:	ee cf       	rjmp	.-36     	; 0x4754 <simplify+0x734>
    4778:	60 e0       	ldi	r22, 0x00	; 0
    477a:	70 e0       	ldi	r23, 0x00	; 0
            for(k=0;k<T-a-j;k++)l[a+j+k] = l[a+i+k];//move resto
    477c:	42 01       	movw	r8, r4
    477e:	82 1a       	sub	r8, r18
    4780:	93 0a       	sbc	r9, r19
    4782:	84 1a       	sub	r8, r20
    4784:	95 0a       	sbc	r9, r21
    4786:	5c 01       	movw	r10, r24
    4788:	a2 0e       	add	r10, r18
    478a:	b3 1e       	adc	r11, r19
    478c:	6a 01       	movw	r12, r20
    478e:	c2 0e       	add	r12, r18
    4790:	d3 1e       	adc	r13, r19
    4792:	68 15       	cp	r22, r8
    4794:	79 05       	cpc	r23, r9
    4796:	7c f4       	brge	.+30     	; 0x47b6 <simplify+0x796>
    4798:	fb 01       	movw	r30, r22
    479a:	ea 0d       	add	r30, r10
    479c:	fb 1d       	adc	r31, r11
    479e:	e0 0f       	add	r30, r16
    47a0:	f1 1f       	adc	r31, r17
    47a2:	70 80       	ld	r7, Z
    47a4:	fb 01       	movw	r30, r22
    47a6:	ec 0d       	add	r30, r12
    47a8:	fd 1d       	adc	r31, r13
    47aa:	e0 0f       	add	r30, r16
    47ac:	f1 1f       	adc	r31, r17
    47ae:	70 82       	st	Z, r7
    47b0:	6f 5f       	subi	r22, 0xFF	; 255
    47b2:	7f 4f       	sbci	r23, 0xFF	; 255
    47b4:	ee cf       	rjmp	.-36     	; 0x4792 <simplify+0x772>
            T = T+j-i;
    47b6:	d2 01       	movw	r26, r4
    47b8:	a4 0f       	add	r26, r20
    47ba:	b5 1f       	adc	r27, r21
    47bc:	2d 01       	movw	r4, r26
    47be:	48 1a       	sub	r4, r24
    47c0:	59 0a       	sbc	r5, r25
         }
      }
      if(d)a=a-1;
    47c2:	21 50       	subi	r18, 0x01	; 1
    47c4:	31 09       	sbc	r19, r1
       {8, 8, 8, -1,   9, -1},
       {10, 10, 10, -1,   11, -1}};//const uint8_t P[780][14] = {
   int a, b, c, d, e, T;
   int i, j, k;
   for(T=0;l[T]>=0;T++);//T - Tamanho do vetor L
   for(a=0;a<T;a++){
    47c6:	2f 5f       	subi	r18, 0xFF	; 255
    47c8:	3f 4f       	sbci	r19, 0xFF	; 255
    47ca:	80 cf       	rjmp	.-256    	; 0x46cc <simplify+0x6ac>
         }
      }
      if(d)a=a-1;
      //if(a<0)a=-1;
   }
   putStr("done!\n");
    47cc:	86 e1       	ldi	r24, 0x16	; 22
    47ce:	91 e0       	ldi	r25, 0x01	; 1
}
    47d0:	c8 50       	subi	r28, 0x08	; 8
    47d2:	de 4f       	sbci	r29, 0xFE	; 254
    47d4:	0f b6       	in	r0, 0x3f	; 63
    47d6:	f8 94       	cli
    47d8:	de bf       	out	0x3e, r29	; 62
    47da:	0f be       	out	0x3f, r0	; 63
    47dc:	cd bf       	out	0x3d, r28	; 61
    47de:	df 91       	pop	r29
    47e0:	cf 91       	pop	r28
    47e2:	1f 91       	pop	r17
    47e4:	0f 91       	pop	r16
    47e6:	ff 90       	pop	r15
    47e8:	ef 90       	pop	r14
    47ea:	df 90       	pop	r13
    47ec:	cf 90       	pop	r12
    47ee:	bf 90       	pop	r11
    47f0:	af 90       	pop	r10
    47f2:	9f 90       	pop	r9
    47f4:	8f 90       	pop	r8
    47f6:	7f 90       	pop	r7
    47f8:	5f 90       	pop	r5
    47fa:	4f 90       	pop	r4
         }
      }
      if(d)a=a-1;
      //if(a<0)a=-1;
   }
   putStr("done!\n");
    47fc:	0c 94 97 08 	jmp	0x112e	; 0x112e <putStr>
   int a, b, c, d, e, T;
   int i, j, k;
   for(T=0;l[T]>=0;T++);//T - Tamanho do vetor L
   for(a=0;a<T;a++){
      d = 0;
      for(b=0;b<36 && !d;b++){
    4800:	6a 3e       	cpi	r22, 0xEA	; 234
    4802:	b1 e0       	ldi	r27, 0x01	; 1
    4804:	7b 07       	cpc	r23, r27
    4806:	f9 f2       	breq	.-66     	; 0x47c6 <simplify+0x7a6>
    4808:	42 5f       	subi	r20, 0xF2	; 242
    480a:	5f 4f       	sbci	r21, 0xFF	; 255
    480c:	62 5f       	subi	r22, 0xF2	; 242
    480e:	7f 4f       	sbci	r23, 0xFF	; 255
    4810:	64 cf       	rjmp	.-312    	; 0x46da <simplify+0x6ba>

00004812 <resolver>:
				break;	
		}
	}
}

char resolver(){
    4812:	8f 92       	push	r8
    4814:	9f 92       	push	r9
    4816:	af 92       	push	r10
    4818:	bf 92       	push	r11
    481a:	cf 92       	push	r12
    481c:	df 92       	push	r13
    481e:	ef 92       	push	r14
    4820:	ff 92       	push	r15
    4822:	0f 93       	push	r16
    4824:	1f 93       	push	r17
    4826:	cf 93       	push	r28
    4828:	df 93       	push	r29
    482a:	cd b7       	in	r28, 0x3d	; 61
    482c:	de b7       	in	r29, 0x3e	; 62
    482e:	ca 5d       	subi	r28, 0xDA	; 218
    4830:	d2 40       	sbci	r29, 0x02	; 2
    4832:	0f b6       	in	r0, 0x3f	; 63
    4834:	f8 94       	cli
    4836:	de bf       	out	0x3e, r29	; 62
    4838:	0f be       	out	0x3f, r0	; 63
    483a:	cd bf       	out	0x3d, r28	; 61
	resetFaces();
    483c:	0e 94 d4 0d 	call	0x1ba8	; 0x1ba8 <resetFaces>
	uint16_t cores[54*4];
	uint8_t cubo[48];
	int8_t movimentos[MAX_JOGADAS];
	leituraInicial(cores);
    4840:	ce 01       	movw	r24, r28
    4842:	01 96       	adiw	r24, 0x01	; 1
    4844:	0e 94 92 0e 	call	0x1d24	; 0x1d24 <leituraInicial>
	autoAjustar(cores);
    4848:	ce 01       	movw	r24, r28
    484a:	01 96       	adiw	r24, 0x01	; 1
    484c:	0e 94 f8 14 	call	0x29f0	; 0x29f0 <autoAjustar>
	//printColor(cores);
	achaMenorDistancia((int16_t*)cores,cubo);
    4850:	be 01       	movw	r22, r28
    4852:	65 55       	subi	r22, 0x55	; 85
    4854:	7d 4f       	sbci	r23, 0xFD	; 253
    4856:	ce 01       	movw	r24, r28
    4858:	01 96       	adiw	r24, 0x01	; 1
    485a:	0e 94 56 16 	call	0x2cac	; 0x2cac <achaMenorDistancia>
	printColor(cores);
    485e:	ce 01       	movw	r24, r28
    4860:	01 96       	adiw	r24, 0x01	; 1
    4862:	0e 94 0e 16 	call	0x2c1c	; 0x2c1c <printColor>
	if(!checaConsistencia(cubo))return 1;
    4866:	ce 01       	movw	r24, r28
    4868:	85 55       	subi	r24, 0x55	; 85
    486a:	9d 4f       	sbci	r25, 0xFD	; 253
    486c:	0e 94 01 17 	call	0x2e02	; 0x2e02 <checaConsistencia>
    4870:	88 23       	and	r24, r24
    4872:	09 f4       	brne	.+2      	; 0x4876 <resolver+0x64>
    4874:	5b c0       	rjmp	.+182    	; 0x492c <resolver+0x11a>
	if(!solve_enhanced(cubo, movimentos))return 2;
    4876:	8e 01       	movw	r16, r28
    4878:	0f 54       	subi	r16, 0x4F	; 79
    487a:	1e 4f       	sbci	r17, 0xFE	; 254
    487c:	b8 01       	movw	r22, r16
    487e:	ce 01       	movw	r24, r28
    4880:	85 55       	subi	r24, 0x55	; 85
    4882:	9d 4f       	sbci	r25, 0xFD	; 253
    4884:	0e 94 cb 1c 	call	0x3996	; 0x3996 <solve_enhanced>
    4888:	88 23       	and	r24, r24
    488a:	09 f4       	brne	.+2      	; 0x488e <resolver+0x7c>
    488c:	51 c0       	rjmp	.+162    	; 0x4930 <resolver+0x11e>
	simplify(movimentos);
    488e:	c8 01       	movw	r24, r16
    4890:	0e 94 10 20 	call	0x4020	; 0x4020 <simplify>
    4894:	58 01       	movw	r10, r16
	int nrJogadas = 0;
	for(nrJogadas=0;movimentos[nrJogadas]>=0 && nrJogadas<MAX_JOGADAS;nrJogadas++);
    4896:	f8 01       	movw	r30, r16
    4898:	4f 01       	movw	r8, r30
    489a:	80 1a       	sub	r8, r16
    489c:	91 0a       	sbc	r9, r17
    489e:	81 91       	ld	r24, Z+
    48a0:	87 ff       	sbrs	r24, 7
    48a2:	fa cf       	rjmp	.-12     	; 0x4898 <resolver+0x86>
	putStr("Resolvendo agora com ");
    48a4:	8d e1       	ldi	r24, 0x1D	; 29
    48a6:	91 e0       	ldi	r25, 0x01	; 1
    48a8:	0e 94 97 08 	call	0x112e	; 0x112e <putStr>
	printInt(nrJogadas);
    48ac:	b4 01       	movw	r22, r8
    48ae:	09 2c       	mov	r0, r9
    48b0:	00 0c       	add	r0, r0
    48b2:	88 0b       	sbc	r24, r24
    48b4:	99 0b       	sbc	r25, r25
    48b6:	0e 94 a3 08 	call	0x1146	; 0x1146 <printInt>
	putStr(" jogadas\n");
    48ba:	83 e3       	ldi	r24, 0x33	; 51
    48bc:	91 e0       	ldi	r25, 0x01	; 1
    48be:	0e 94 97 08 	call	0x112e	; 0x112e <putStr>
    48c2:	8f e1       	ldi	r24, 0x1F	; 31
    48c4:	9e e4       	ldi	r25, 0x4E	; 78
    48c6:	01 97       	sbiw	r24, 0x01	; 1
    48c8:	f1 f7       	brne	.-4      	; 0x48c6 <resolver+0xb4>
    48ca:	00 c0       	rjmp	.+0      	; 0x48cc <resolver+0xba>
    48cc:	00 00       	nop
	_delay_ms(10);
	for(int a=0;a<nrJogadas;a++){
    48ce:	c1 2c       	mov	r12, r1
    48d0:	d1 2c       	mov	r13, r1
    48d2:	76 01       	movw	r14, r12
    48d4:	c8 14       	cp	r12, r8
    48d6:	d9 04       	cpc	r13, r9
    48d8:	3c f5       	brge	.+78     	; 0x4928 <resolver+0x116>
		putStr("J:");
    48da:	8d e3       	ldi	r24, 0x3D	; 61
    48dc:	91 e0       	ldi	r25, 0x01	; 1
    48de:	0e 94 97 08 	call	0x112e	; 0x112e <putStr>
		printInt(a);
    48e2:	c7 01       	movw	r24, r14
    48e4:	b6 01       	movw	r22, r12
    48e6:	0e 94 a3 08 	call	0x1146	; 0x1146 <printInt>
		putStr(" => ");
    48ea:	80 e4       	ldi	r24, 0x40	; 64
    48ec:	91 e0       	ldi	r25, 0x01	; 1
    48ee:	0e 94 97 08 	call	0x112e	; 0x112e <putStr>
    48f2:	85 01       	movw	r16, r10
		printInt(movimentos[a]);
    48f4:	f5 01       	movw	r30, r10
    48f6:	61 91       	ld	r22, Z+
    48f8:	5f 01       	movw	r10, r30
    48fa:	06 2e       	mov	r0, r22
    48fc:	00 0c       	add	r0, r0
    48fe:	77 0b       	sbc	r23, r23
    4900:	88 0b       	sbc	r24, r24
    4902:	99 0b       	sbc	r25, r25
    4904:	0e 94 a3 08 	call	0x1146	; 0x1146 <printInt>
		putch('\n');
    4908:	8a e0       	ldi	r24, 0x0A	; 10
    490a:	0e 94 6e 08 	call	0x10dc	; 0x10dc <putch>
		if(!executarMovimento(movimentos[a]))return 3;
    490e:	f8 01       	movw	r30, r16
    4910:	80 81       	ld	r24, Z
    4912:	0e 94 e2 0d 	call	0x1bc4	; 0x1bc4 <executarMovimento>
    4916:	ff ef       	ldi	r31, 0xFF	; 255
    4918:	cf 1a       	sub	r12, r31
    491a:	df 0a       	sbc	r13, r31
    491c:	ef 0a       	sbc	r14, r31
    491e:	ff 0a       	sbc	r15, r31
    4920:	81 11       	cpse	r24, r1
    4922:	d8 cf       	rjmp	.-80     	; 0x48d4 <resolver+0xc2>
    4924:	83 e0       	ldi	r24, 0x03	; 3
    4926:	05 c0       	rjmp	.+10     	; 0x4932 <resolver+0x120>
	}	
	return 0;
    4928:	80 e0       	ldi	r24, 0x00	; 0
    492a:	03 c0       	rjmp	.+6      	; 0x4932 <resolver+0x120>
	leituraInicial(cores);
	autoAjustar(cores);
	//printColor(cores);
	achaMenorDistancia((int16_t*)cores,cubo);
	printColor(cores);
	if(!checaConsistencia(cubo))return 1;
    492c:	81 e0       	ldi	r24, 0x01	; 1
    492e:	01 c0       	rjmp	.+2      	; 0x4932 <resolver+0x120>
	if(!solve_enhanced(cubo, movimentos))return 2;
    4930:	82 e0       	ldi	r24, 0x02	; 2
		printInt(movimentos[a]);
		putch('\n');
		if(!executarMovimento(movimentos[a]))return 3;
	}	
	return 0;
    4932:	c6 52       	subi	r28, 0x26	; 38
    4934:	dd 4f       	sbci	r29, 0xFD	; 253
    4936:	0f b6       	in	r0, 0x3f	; 63
    4938:	f8 94       	cli
    493a:	de bf       	out	0x3e, r29	; 62
    493c:	0f be       	out	0x3f, r0	; 63
    493e:	cd bf       	out	0x3d, r28	; 61
    4940:	df 91       	pop	r29
    4942:	cf 91       	pop	r28
    4944:	1f 91       	pop	r17
    4946:	0f 91       	pop	r16
    4948:	ff 90       	pop	r15
    494a:	ef 90       	pop	r14
    494c:	df 90       	pop	r13
    494e:	cf 90       	pop	r12
    4950:	bf 90       	pop	r11
    4952:	af 90       	pop	r10
    4954:	9f 90       	pop	r9
    4956:	8f 90       	pop	r8
    4958:	08 95       	ret

0000495a <main>:
#include "cuboBasic.h"
#include "cuboAvancado.h"

char resolver();
int main(void){
	initMotors();
    495a:	0e 94 38 09 	call	0x1270	; 0x1270 <initMotors>
	initSerial(9600);
    495e:	60 e8       	ldi	r22, 0x80	; 128
    4960:	75 e2       	ldi	r23, 0x25	; 37
    4962:	80 e0       	ldi	r24, 0x00	; 0
    4964:	90 e0       	ldi	r25, 0x00	; 0
    4966:	0e 94 06 08 	call	0x100c	; 0x100c <initSerial>
	initSensores();
    496a:	0e 94 a4 0b 	call	0x1748	; 0x1748 <initSensores>
	putStr("Inicializado!\n");
    496e:	85 e4       	ldi	r24, 0x45	; 69
    4970:	91 e0       	ldi	r25, 0x01	; 1
    4972:	0e 94 97 08 	call	0x112e	; 0x112e <putStr>
	soltaBraco();
    4976:	0e 94 7a 09 	call	0x12f4	; 0x12f4 <soltaBraco>
	tombaCubo();
    497a:	0e 94 35 0d 	call	0x1a6a	; 0x1a6a <tombaCubo>
	while(1){
		char erro = resolver();
    497e:	0e 94 09 24 	call	0x4812	; 0x4812 <resolver>
		switch(erro){
    4982:	82 30       	cpi	r24, 0x02	; 2
    4984:	01 f1       	breq	.+64     	; 0x49c6 <main+0x6c>
    4986:	38 f4       	brcc	.+14     	; 0x4996 <main+0x3c>
    4988:	88 23       	and	r24, r24
    498a:	61 f0       	breq	.+24     	; 0x49a4 <main+0x4a>
    498c:	81 30       	cpi	r24, 0x01	; 1
    498e:	b9 f7       	brne	.-18     	; 0x497e <main+0x24>
				soltaROT();
				soltaBraco();
				_delay_ms(10000);
				break;
			case 1:
				putStr("Erro de consistencia\n");
    4990:	8f e5       	ldi	r24, 0x5F	; 95
    4992:	91 e0       	ldi	r25, 0x01	; 1
    4994:	1d c0       	rjmp	.+58     	; 0x49d0 <main+0x76>
	putStr("Inicializado!\n");
	soltaBraco();
	tombaCubo();
	while(1){
		char erro = resolver();
		switch(erro){
    4996:	83 30       	cpi	r24, 0x03	; 3
    4998:	c9 f0       	breq	.+50     	; 0x49cc <main+0x72>
    499a:	84 30       	cpi	r24, 0x04	; 4
    499c:	81 f7       	brne	.-32     	; 0x497e <main+0x24>
			case 3:
				putStr("Erro ao executar movimento\n");
				_delay_ms(10000);
				break;
			case 4:
				putStr("Erro de sincronia\n");
    499e:	8a ea       	ldi	r24, 0xAA	; 170
    49a0:	91 e0       	ldi	r25, 0x01	; 1
    49a2:	16 c0       	rjmp	.+44     	; 0x49d0 <main+0x76>
	tombaCubo();
	while(1){
		char erro = resolver();
		switch(erro){
			case 0:
				putStr("Resolvido!");
    49a4:	84 e5       	ldi	r24, 0x54	; 84
    49a6:	91 e0       	ldi	r25, 0x01	; 1
    49a8:	0e 94 97 08 	call	0x112e	; 0x112e <putStr>
				levantaBraco();
    49ac:	0e 94 56 09 	call	0x12ac	; 0x12ac <levantaBraco>
    49b0:	c0 e8       	ldi	r28, 0x80	; 128
    49b2:	d7 e0       	ldi	r29, 0x07	; 7
				for(int a=0;a<4*480;a++)passoROTHOR();
    49b4:	0e 94 a1 09 	call	0x1342	; 0x1342 <passoROTHOR>
    49b8:	21 97       	sbiw	r28, 0x01	; 1
    49ba:	e1 f7       	brne	.-8      	; 0x49b4 <main+0x5a>
				soltaROT();
    49bc:	0e 94 9c 09 	call	0x1338	; 0x1338 <soltaROT>
				soltaBraco();
    49c0:	0e 94 7a 09 	call	0x12f4	; 0x12f4 <soltaBraco>
    49c4:	07 c0       	rjmp	.+14     	; 0x49d4 <main+0x7a>
			case 1:
				putStr("Erro de consistencia\n");
				_delay_ms(10000);
				break;
			case 2:
				putStr("Erro ao solucionar cubo\n");
    49c6:	85 e7       	ldi	r24, 0x75	; 117
    49c8:	91 e0       	ldi	r25, 0x01	; 1
    49ca:	02 c0       	rjmp	.+4      	; 0x49d0 <main+0x76>
				_delay_ms(10000);
				break;
			case 3:
				putStr("Erro ao executar movimento\n");
    49cc:	8e e8       	ldi	r24, 0x8E	; 142
    49ce:	91 e0       	ldi	r25, 0x01	; 1
    49d0:	0e 94 97 08 	call	0x112e	; 0x112e <putStr>
    49d4:	2f ef       	ldi	r18, 0xFF	; 255
    49d6:	83 e2       	ldi	r24, 0x23	; 35
    49d8:	94 ef       	ldi	r25, 0xF4	; 244
    49da:	21 50       	subi	r18, 0x01	; 1
    49dc:	80 40       	sbci	r24, 0x00	; 0
    49de:	90 40       	sbci	r25, 0x00	; 0
    49e0:	e1 f7       	brne	.-8      	; 0x49da <main+0x80>
    49e2:	00 c0       	rjmp	.+0      	; 0x49e4 <main+0x8a>
    49e4:	00 00       	nop
    49e6:	cb cf       	rjmp	.-106    	; 0x497e <main+0x24>

000049e8 <__udivmodhi4>:
    49e8:	aa 1b       	sub	r26, r26
    49ea:	bb 1b       	sub	r27, r27
    49ec:	51 e1       	ldi	r21, 0x11	; 17
    49ee:	07 c0       	rjmp	.+14     	; 0x49fe <__udivmodhi4_ep>

000049f0 <__udivmodhi4_loop>:
    49f0:	aa 1f       	adc	r26, r26
    49f2:	bb 1f       	adc	r27, r27
    49f4:	a6 17       	cp	r26, r22
    49f6:	b7 07       	cpc	r27, r23
    49f8:	10 f0       	brcs	.+4      	; 0x49fe <__udivmodhi4_ep>
    49fa:	a6 1b       	sub	r26, r22
    49fc:	b7 0b       	sbc	r27, r23

000049fe <__udivmodhi4_ep>:
    49fe:	88 1f       	adc	r24, r24
    4a00:	99 1f       	adc	r25, r25
    4a02:	5a 95       	dec	r21
    4a04:	a9 f7       	brne	.-22     	; 0x49f0 <__udivmodhi4_loop>
    4a06:	80 95       	com	r24
    4a08:	90 95       	com	r25
    4a0a:	bc 01       	movw	r22, r24
    4a0c:	cd 01       	movw	r24, r26
    4a0e:	08 95       	ret

00004a10 <__udivmodsi4>:
    4a10:	a1 e2       	ldi	r26, 0x21	; 33
    4a12:	1a 2e       	mov	r1, r26
    4a14:	aa 1b       	sub	r26, r26
    4a16:	bb 1b       	sub	r27, r27
    4a18:	fd 01       	movw	r30, r26
    4a1a:	0d c0       	rjmp	.+26     	; 0x4a36 <__udivmodsi4_ep>

00004a1c <__udivmodsi4_loop>:
    4a1c:	aa 1f       	adc	r26, r26
    4a1e:	bb 1f       	adc	r27, r27
    4a20:	ee 1f       	adc	r30, r30
    4a22:	ff 1f       	adc	r31, r31
    4a24:	a2 17       	cp	r26, r18
    4a26:	b3 07       	cpc	r27, r19
    4a28:	e4 07       	cpc	r30, r20
    4a2a:	f5 07       	cpc	r31, r21
    4a2c:	20 f0       	brcs	.+8      	; 0x4a36 <__udivmodsi4_ep>
    4a2e:	a2 1b       	sub	r26, r18
    4a30:	b3 0b       	sbc	r27, r19
    4a32:	e4 0b       	sbc	r30, r20
    4a34:	f5 0b       	sbc	r31, r21

00004a36 <__udivmodsi4_ep>:
    4a36:	66 1f       	adc	r22, r22
    4a38:	77 1f       	adc	r23, r23
    4a3a:	88 1f       	adc	r24, r24
    4a3c:	99 1f       	adc	r25, r25
    4a3e:	1a 94       	dec	r1
    4a40:	69 f7       	brne	.-38     	; 0x4a1c <__udivmodsi4_loop>
    4a42:	60 95       	com	r22
    4a44:	70 95       	com	r23
    4a46:	80 95       	com	r24
    4a48:	90 95       	com	r25
    4a4a:	9b 01       	movw	r18, r22
    4a4c:	ac 01       	movw	r20, r24
    4a4e:	bd 01       	movw	r22, r26
    4a50:	cf 01       	movw	r24, r30
    4a52:	08 95       	ret

00004a54 <__divmodsi4>:
    4a54:	05 2e       	mov	r0, r21
    4a56:	97 fb       	bst	r25, 7
    4a58:	1e f4       	brtc	.+6      	; 0x4a60 <__divmodsi4+0xc>
    4a5a:	00 94       	com	r0
    4a5c:	0e 94 41 25 	call	0x4a82	; 0x4a82 <__negsi2>
    4a60:	57 fd       	sbrc	r21, 7
    4a62:	07 d0       	rcall	.+14     	; 0x4a72 <__divmodsi4_neg2>
    4a64:	0e 94 08 25 	call	0x4a10	; 0x4a10 <__udivmodsi4>
    4a68:	07 fc       	sbrc	r0, 7
    4a6a:	03 d0       	rcall	.+6      	; 0x4a72 <__divmodsi4_neg2>
    4a6c:	4e f4       	brtc	.+18     	; 0x4a80 <__divmodsi4_exit>
    4a6e:	0c 94 41 25 	jmp	0x4a82	; 0x4a82 <__negsi2>

00004a72 <__divmodsi4_neg2>:
    4a72:	50 95       	com	r21
    4a74:	40 95       	com	r20
    4a76:	30 95       	com	r19
    4a78:	21 95       	neg	r18
    4a7a:	3f 4f       	sbci	r19, 0xFF	; 255
    4a7c:	4f 4f       	sbci	r20, 0xFF	; 255
    4a7e:	5f 4f       	sbci	r21, 0xFF	; 255

00004a80 <__divmodsi4_exit>:
    4a80:	08 95       	ret

00004a82 <__negsi2>:
    4a82:	90 95       	com	r25
    4a84:	80 95       	com	r24
    4a86:	70 95       	com	r23
    4a88:	61 95       	neg	r22
    4a8a:	7f 4f       	sbci	r23, 0xFF	; 255
    4a8c:	8f 4f       	sbci	r24, 0xFF	; 255
    4a8e:	9f 4f       	sbci	r25, 0xFF	; 255
    4a90:	08 95       	ret

00004a92 <__tablejump2__>:
    4a92:	ee 0f       	add	r30, r30
    4a94:	ff 1f       	adc	r31, r31
    4a96:	05 90       	lpm	r0, Z+
    4a98:	f4 91       	lpm	r31, Z
    4a9a:	e0 2d       	mov	r30, r0
    4a9c:	09 94       	ijmp

00004a9e <__mulhisi3>:
    4a9e:	0e 94 57 25 	call	0x4aae	; 0x4aae <__umulhisi3>
    4aa2:	33 23       	and	r19, r19
    4aa4:	12 f4       	brpl	.+4      	; 0x4aaa <__mulhisi3+0xc>
    4aa6:	8a 1b       	sub	r24, r26
    4aa8:	9b 0b       	sbc	r25, r27
    4aaa:	0c 94 68 25 	jmp	0x4ad0	; 0x4ad0 <__usmulhisi3_tail>

00004aae <__umulhisi3>:
    4aae:	a2 9f       	mul	r26, r18
    4ab0:	b0 01       	movw	r22, r0
    4ab2:	b3 9f       	mul	r27, r19
    4ab4:	c0 01       	movw	r24, r0
    4ab6:	a3 9f       	mul	r26, r19
    4ab8:	70 0d       	add	r23, r0
    4aba:	81 1d       	adc	r24, r1
    4abc:	11 24       	eor	r1, r1
    4abe:	91 1d       	adc	r25, r1
    4ac0:	b2 9f       	mul	r27, r18
    4ac2:	70 0d       	add	r23, r0
    4ac4:	81 1d       	adc	r24, r1
    4ac6:	11 24       	eor	r1, r1
    4ac8:	91 1d       	adc	r25, r1
    4aca:	08 95       	ret

00004acc <__usmulhisi3>:
    4acc:	0e 94 57 25 	call	0x4aae	; 0x4aae <__umulhisi3>

00004ad0 <__usmulhisi3_tail>:
    4ad0:	b7 ff       	sbrs	r27, 7
    4ad2:	08 95       	ret
    4ad4:	82 1b       	sub	r24, r18
    4ad6:	93 0b       	sbc	r25, r19
    4ad8:	08 95       	ret

00004ada <memcpy_P>:
    4ada:	fb 01       	movw	r30, r22
    4adc:	dc 01       	movw	r26, r24
    4ade:	02 c0       	rjmp	.+4      	; 0x4ae4 <memcpy_P+0xa>
    4ae0:	05 90       	lpm	r0, Z+
    4ae2:	0d 92       	st	X+, r0
    4ae4:	41 50       	subi	r20, 0x01	; 1
    4ae6:	50 40       	sbci	r21, 0x00	; 0
    4ae8:	d8 f7       	brcc	.-10     	; 0x4ae0 <memcpy_P+0x6>
    4aea:	08 95       	ret

00004aec <_exit>:
    4aec:	f8 94       	cli

00004aee <__stop_program>:
    4aee:	ff cf       	rjmp	.-2      	; 0x4aee <__stop_program>
